ARM GAS  C:\Users\PNGUBO~1\AppData\Local\Temp\cc2cBPbh.s 			page 1


   1              		.cpu cortex-m4
   2              		.arch armv7e-m
   3              		.fpu fpv4-sp-d16
   4              		.eabi_attribute 27, 1
   5              		.eabi_attribute 28, 1
   6              		.eabi_attribute 20, 1
   7              		.eabi_attribute 21, 1
   8              		.eabi_attribute 23, 3
   9              		.eabi_attribute 24, 1
  10              		.eabi_attribute 25, 1
  11              		.eabi_attribute 26, 1
  12              		.eabi_attribute 30, 1
  13              		.eabi_attribute 34, 1
  14              		.eabi_attribute 18, 4
  15              		.file	"main.c"
  16              		.text
  17              		.section	.text.MX_GPIO_Init,"ax",%progbits
  18              		.align	1
  19              		.syntax unified
  20              		.thumb
  21              		.thumb_func
  23              	MX_GPIO_Init:
  24              		@ args = 0, pretend = 0, frame = 32
  25              		@ frame_needed = 0, uses_anonymous_args = 0
  26 0000 2DE9F04F 		push	{r4, r5, r6, r7, r8, r9, r10, fp, lr}
  27 0004 89B0     		sub	sp, sp, #36
  28 0006 03AD     		add	r5, sp, #12
  29 0008 0024     		movs	r4, #0
  30 000a 0394     		str	r4, [sp, #12]
  31 000c 0494     		str	r4, [sp, #16]
  32 000e 0594     		str	r4, [sp, #20]
  33 0010 0694     		str	r4, [sp, #24]
  34 0012 0794     		str	r4, [sp, #28]
  35 0014 0094     		str	r4, [sp]
  36 0016 4A4B     		ldr	r3, .L3
  37 0018 1A6B     		ldr	r2, [r3, #48]
  38 001a 42F08002 		orr	r2, r2, #128
  39 001e 1A63     		str	r2, [r3, #48]
  40 0020 1A6B     		ldr	r2, [r3, #48]
  41 0022 02F08002 		and	r2, r2, #128
  42 0026 0092     		str	r2, [sp]
  43 0028 009A     		ldr	r2, [sp]
  44 002a 0194     		str	r4, [sp, #4]
  45 002c 1A6B     		ldr	r2, [r3, #48]
  46 002e 42F00102 		orr	r2, r2, #1
  47 0032 1A63     		str	r2, [r3, #48]
  48 0034 1A6B     		ldr	r2, [r3, #48]
  49 0036 02F00102 		and	r2, r2, #1
  50 003a 0192     		str	r2, [sp, #4]
  51 003c 019A     		ldr	r2, [sp, #4]
  52 003e 0294     		str	r4, [sp, #8]
  53 0040 1A6B     		ldr	r2, [r3, #48]
  54 0042 42F00202 		orr	r2, r2, #2
  55 0046 1A63     		str	r2, [r3, #48]
  56 0048 1B6B     		ldr	r3, [r3, #48]
  57 004a 03F00203 		and	r3, r3, #2
  58 004e 0293     		str	r3, [sp, #8]
ARM GAS  C:\Users\PNGUBO~1\AppData\Local\Temp\cc2cBPbh.s 			page 2


  59 0050 029B     		ldr	r3, [sp, #8]
  60 0052 4FF4404B 		mov	fp, #49152
  61 0056 CDF80CB0 		str	fp, [sp, #12]
  62 005a 0127     		movs	r7, #1
  63 005c 0497     		str	r7, [sp, #16]
  64 005e 2946     		mov	r1, r5
  65 0060 3848     		ldr	r0, .L3+4
  66 0062 FFF7FEFF 		bl	HAL_GPIO_Init
  67 0066 4FF44079 		mov	r9, #768
  68 006a CDF80C90 		str	r9, [sp, #12]
  69 006e DFF8DC80 		ldr	r8, .L3+12
  70 0072 2946     		mov	r1, r5
  71 0074 4046     		mov	r0, r8
  72 0076 FFF7FEFF 		bl	HAL_GPIO_Init
  73 007a 4FF4104A 		mov	r10, #36864
  74 007e CDF80CA0 		str	r10, [sp, #12]
  75 0082 314E     		ldr	r6, .L3+8
  76 0084 2946     		mov	r1, r5
  77 0086 3046     		mov	r0, r6
  78 0088 FFF7FEFF 		bl	HAL_GPIO_Init
  79 008c 2246     		mov	r2, r4
  80 008e 5946     		mov	r1, fp
  81 0090 2C48     		ldr	r0, .L3+4
  82 0092 FFF7FEFF 		bl	HAL_GPIO_WritePin
  83 0096 2246     		mov	r2, r4
  84 0098 4946     		mov	r1, r9
  85 009a 4046     		mov	r0, r8
  86 009c FFF7FEFF 		bl	HAL_GPIO_WritePin
  87 00a0 2246     		mov	r2, r4
  88 00a2 5146     		mov	r1, r10
  89 00a4 3046     		mov	r0, r6
  90 00a6 FFF7FEFF 		bl	HAL_GPIO_WritePin
  91 00aa 0397     		str	r7, [sp, #12]
  92 00ac 4FF48813 		mov	r3, #1114112
  93 00b0 0493     		str	r3, [sp, #16]
  94 00b2 0597     		str	r7, [sp, #20]
  95 00b4 2946     		mov	r1, r5
  96 00b6 3046     		mov	r0, r6
  97 00b8 FFF7FEFF 		bl	HAL_GPIO_Init
  98 00bc 2246     		mov	r2, r4
  99 00be 0221     		movs	r1, #2
 100 00c0 0620     		movs	r0, #6
 101 00c2 FFF7FEFF 		bl	HAL_NVIC_SetPriority
 102 00c6 0620     		movs	r0, #6
 103 00c8 FFF7FEFF 		bl	HAL_NVIC_EnableIRQ
 104 00cc 0F23     		movs	r3, #15
 105 00ce 0393     		str	r3, [sp, #12]
 106 00d0 4FF40413 		mov	r3, #2162688
 107 00d4 0493     		str	r3, [sp, #16]
 108 00d6 0597     		str	r7, [sp, #20]
 109 00d8 0694     		str	r4, [sp, #24]
 110 00da 2946     		mov	r1, r5
 111 00dc 3046     		mov	r0, r6
 112 00de FFF7FEFF 		bl	HAL_GPIO_Init
 113 00e2 2246     		mov	r2, r4
 114 00e4 0221     		movs	r1, #2
 115 00e6 0620     		movs	r0, #6
ARM GAS  C:\Users\PNGUBO~1\AppData\Local\Temp\cc2cBPbh.s 			page 3


 116 00e8 FFF7FEFF 		bl	HAL_NVIC_SetPriority
 117 00ec 0620     		movs	r0, #6
 118 00ee FFF7FEFF 		bl	HAL_NVIC_EnableIRQ
 119 00f2 2246     		mov	r2, r4
 120 00f4 0221     		movs	r1, #2
 121 00f6 0720     		movs	r0, #7
 122 00f8 FFF7FEFF 		bl	HAL_NVIC_SetPriority
 123 00fc 0720     		movs	r0, #7
 124 00fe FFF7FEFF 		bl	HAL_NVIC_EnableIRQ
 125 0102 2246     		mov	r2, r4
 126 0104 0221     		movs	r1, #2
 127 0106 0820     		movs	r0, #8
 128 0108 FFF7FEFF 		bl	HAL_NVIC_SetPriority
 129 010c 0820     		movs	r0, #8
 130 010e FFF7FEFF 		bl	HAL_NVIC_EnableIRQ
 131 0112 2246     		mov	r2, r4
 132 0114 0221     		movs	r1, #2
 133 0116 0920     		movs	r0, #9
 134 0118 FFF7FEFF 		bl	HAL_NVIC_SetPriority
 135 011c 0920     		movs	r0, #9
 136 011e FFF7FEFF 		bl	HAL_NVIC_EnableIRQ
 137 0122 3368     		ldr	r3, [r6]
 138 0124 43F47053 		orr	r3, r3, #15360
 139 0128 3360     		str	r3, [r6]
 140 012a F368     		ldr	r3, [r6, #12]
 141 012c 23F47053 		bic	r3, r3, #15360
 142 0130 F360     		str	r3, [r6, #12]
 143 0132 45F25553 		movw	r3, #21845
 144 0136 C8F80030 		str	r3, [r8]
 145 013a 09B0     		add	sp, sp, #36
 146              		@ sp needed
 147 013c BDE8F08F 		pop	{r4, r5, r6, r7, r8, r9, r10, fp, pc}
 148              	.L4:
 149              		.align	2
 150              	.L3:
 151 0140 00380240 		.word	1073887232
 152 0144 00080240 		.word	1073874944
 153 0148 00000240 		.word	1073872896
 154 014c 00040240 		.word	1073873920
 156              		.section	.text.MX_DMA_Init,"ax",%progbits
 157              		.align	1
 158              		.syntax unified
 159              		.thumb
 160              		.thumb_func
 162              	MX_DMA_Init:
 163              		@ args = 0, pretend = 0, frame = 8
 164              		@ frame_needed = 0, uses_anonymous_args = 0
 165 0000 00B5     		push	{lr}
 166 0002 83B0     		sub	sp, sp, #12
 167 0004 0021     		movs	r1, #0
 168 0006 0191     		str	r1, [sp, #4]
 169 0008 094B     		ldr	r3, .L7
 170 000a 1A6B     		ldr	r2, [r3, #48]
 171 000c 42F40012 		orr	r2, r2, #2097152
 172 0010 1A63     		str	r2, [r3, #48]
 173 0012 1B6B     		ldr	r3, [r3, #48]
 174 0014 03F40013 		and	r3, r3, #2097152
ARM GAS  C:\Users\PNGUBO~1\AppData\Local\Temp\cc2cBPbh.s 			page 4


 175 0018 0193     		str	r3, [sp, #4]
 176 001a 019B     		ldr	r3, [sp, #4]
 177 001c 0A46     		mov	r2, r1
 178 001e 1020     		movs	r0, #16
 179 0020 FFF7FEFF 		bl	HAL_NVIC_SetPriority
 180 0024 1020     		movs	r0, #16
 181 0026 FFF7FEFF 		bl	HAL_NVIC_EnableIRQ
 182 002a 03B0     		add	sp, sp, #12
 183              		@ sp needed
 184 002c 5DF804FB 		ldr	pc, [sp], #4
 185              	.L8:
 186              		.align	2
 187              	.L7:
 188 0030 00380240 		.word	1073887232
 190              		.section	.text.EXTI0_IRQHandler,"ax",%progbits
 191              		.align	1
 192              		.global	EXTI0_IRQHandler
 193              		.syntax unified
 194              		.thumb
 195              		.thumb_func
 197              	EXTI0_IRQHandler:
 198              		@ args = 0, pretend = 0, frame = 0
 199              		@ frame_needed = 0, uses_anonymous_args = 0
 200 0000 08B5     		push	{r3, lr}
 201 0002 0120     		movs	r0, #1
 202 0004 FFF7FEFF 		bl	HAL_GPIO_EXTI_IRQHandler
 203 0008 08BD     		pop	{r3, pc}
 205              		.section	.text.EXTI1_IRQHandler,"ax",%progbits
 206              		.align	1
 207              		.global	EXTI1_IRQHandler
 208              		.syntax unified
 209              		.thumb
 210              		.thumb_func
 212              	EXTI1_IRQHandler:
 213              		@ args = 0, pretend = 0, frame = 0
 214              		@ frame_needed = 0, uses_anonymous_args = 0
 215 0000 08B5     		push	{r3, lr}
 216 0002 0220     		movs	r0, #2
 217 0004 FFF7FEFF 		bl	HAL_GPIO_EXTI_IRQHandler
 218 0008 08BD     		pop	{r3, pc}
 220              		.section	.text.EXTI2_IRQHandler,"ax",%progbits
 221              		.align	1
 222              		.global	EXTI2_IRQHandler
 223              		.syntax unified
 224              		.thumb
 225              		.thumb_func
 227              	EXTI2_IRQHandler:
 228              		@ args = 0, pretend = 0, frame = 0
 229              		@ frame_needed = 0, uses_anonymous_args = 0
 230 0000 08B5     		push	{r3, lr}
 231 0002 0420     		movs	r0, #4
 232 0004 FFF7FEFF 		bl	HAL_GPIO_EXTI_IRQHandler
 233 0008 08BD     		pop	{r3, pc}
 235              		.section	.text.EXTI3_IRQHandler,"ax",%progbits
 236              		.align	1
 237              		.global	EXTI3_IRQHandler
 238              		.syntax unified
ARM GAS  C:\Users\PNGUBO~1\AppData\Local\Temp\cc2cBPbh.s 			page 5


 239              		.thumb
 240              		.thumb_func
 242              	EXTI3_IRQHandler:
 243              		@ args = 0, pretend = 0, frame = 0
 244              		@ frame_needed = 0, uses_anonymous_args = 0
 245 0000 08B5     		push	{r3, lr}
 246 0002 0820     		movs	r0, #8
 247 0004 FFF7FEFF 		bl	HAL_GPIO_EXTI_IRQHandler
 248 0008 08BD     		pop	{r3, pc}
 250              		.section	.rodata.HAL_GPIO_EXTI_Callback.str1.4,"aMS",%progbits,1
 251              		.align	2
 252              	.LC0:
 253 0000 42544E30 		.ascii	"BTN0\015\012\000"
 253      0D0A00
 254 0007 00       		.align	2
 255              	.LC1:
 256 0008 42544E31 		.ascii	"BTN1\015\012\000"
 256      0D0A00
 257 000f 00       		.align	2
 258              	.LC2:
 259 0010 42544E32 		.ascii	"BTN2\015\012\000"
 259      0D0A00
 260 0017 00       		.align	2
 261              	.LC3:
 262 0018 42544E33 		.ascii	"BTN3\015\012\000"
 262      0D0A00
 263              		.section	.text.HAL_GPIO_EXTI_Callback,"ax",%progbits
 264              		.align	1
 265              		.global	HAL_GPIO_EXTI_Callback
 266              		.syntax unified
 267              		.thumb
 268              		.thumb_func
 270              	HAL_GPIO_EXTI_Callback:
 271              		@ args = 0, pretend = 0, frame = 8
 272              		@ frame_needed = 0, uses_anonymous_args = 0
 273 0000 10B5     		push	{r4, lr}
 274 0002 82B0     		sub	sp, sp, #8
 275 0004 0446     		mov	r4, r0
 276 0006 FFF7FEFF 		bl	HAL_GetTick
 277 000a 631E     		subs	r3, r4, #1
 278 000c 072B     		cmp	r3, #7
 279 000e 0BD8     		bhi	.L17
 280 0010 DFE803F0 		tbb	[pc, r3]
 281              	.L20:
 282 0014 04       		.byte	(.L23-.L20)/2
 283 0015 22       		.byte	(.L22-.L20)/2
 284 0016 0A       		.byte	(.L17-.L20)/2
 285 0017 3E       		.byte	(.L21-.L20)/2
 286 0018 0A       		.byte	(.L17-.L20)/2
 287 0019 0A       		.byte	(.L17-.L20)/2
 288 001a 0A       		.byte	(.L17-.L20)/2
 289 001b 5A       		.byte	(.L19-.L20)/2
 290              		.p2align 1
 291              	.L23:
 292 001c 384B     		ldr	r3, .L27
 293 001e 1B68     		ldr	r3, [r3]
 294 0020 C31A     		subs	r3, r0, r3
ARM GAS  C:\Users\PNGUBO~1\AppData\Local\Temp\cc2cBPbh.s 			page 6


 295 0022 B3F5967F 		cmp	r3, #300
 296 0026 01D8     		bhi	.L26
 297              	.L17:
 298 0028 02B0     		add	sp, sp, #8
 299              		@ sp needed
 300 002a 10BD     		pop	{r4, pc}
 301              	.L26:
 302 002c 344B     		ldr	r3, .L27
 303 002e 1860     		str	r0, [r3]
 304 0030 344B     		ldr	r3, .L27+4
 305 0032 93E80300 		ldm	r3, {r0, r1}
 306 0036 0090     		str	r0, [sp]
 307 0038 ADF80410 		strh	r1, [sp, #4]	@ movhi
 308 003c 090C     		lsrs	r1, r1, #16
 309 003e 8DF80610 		strb	r1, [sp, #6]
 310 0042 6846     		mov	r0, sp
 311 0044 FFF7FEFF 		bl	strlen
 312 0048 4FF0FF33 		mov	r3, #-1
 313 004c 82B2     		uxth	r2, r0
 314 004e 6946     		mov	r1, sp
 315 0050 2D48     		ldr	r0, .L27+8
 316 0052 FFF7FEFF 		bl	HAL_UART_Transmit
 317 0056 E7E7     		b	.L17
 318              	.L22:
 319 0058 294B     		ldr	r3, .L27
 320 005a 5B68     		ldr	r3, [r3, #4]
 321 005c C31A     		subs	r3, r0, r3
 322 005e B3F5967F 		cmp	r3, #300
 323 0062 E1D9     		bls	.L17
 324 0064 264B     		ldr	r3, .L27
 325 0066 5860     		str	r0, [r3, #4]
 326 0068 284B     		ldr	r3, .L27+12
 327 006a 93E80300 		ldm	r3, {r0, r1}
 328 006e 0090     		str	r0, [sp]
 329 0070 ADF80410 		strh	r1, [sp, #4]	@ movhi
 330 0074 090C     		lsrs	r1, r1, #16
 331 0076 8DF80610 		strb	r1, [sp, #6]
 332 007a 6846     		mov	r0, sp
 333 007c FFF7FEFF 		bl	strlen
 334 0080 4FF0FF33 		mov	r3, #-1
 335 0084 82B2     		uxth	r2, r0
 336 0086 6946     		mov	r1, sp
 337 0088 1F48     		ldr	r0, .L27+8
 338 008a FFF7FEFF 		bl	HAL_UART_Transmit
 339 008e CBE7     		b	.L17
 340              	.L21:
 341 0090 1B4B     		ldr	r3, .L27
 342 0092 9B68     		ldr	r3, [r3, #8]
 343 0094 C31A     		subs	r3, r0, r3
 344 0096 B3F5967F 		cmp	r3, #300
 345 009a C5D9     		bls	.L17
 346 009c 184B     		ldr	r3, .L27
 347 009e 9860     		str	r0, [r3, #8]
 348 00a0 1B4B     		ldr	r3, .L27+16
 349 00a2 93E80300 		ldm	r3, {r0, r1}
 350 00a6 0090     		str	r0, [sp]
 351 00a8 ADF80410 		strh	r1, [sp, #4]	@ movhi
ARM GAS  C:\Users\PNGUBO~1\AppData\Local\Temp\cc2cBPbh.s 			page 7


 352 00ac 090C     		lsrs	r1, r1, #16
 353 00ae 8DF80610 		strb	r1, [sp, #6]
 354 00b2 6846     		mov	r0, sp
 355 00b4 FFF7FEFF 		bl	strlen
 356 00b8 4FF0FF33 		mov	r3, #-1
 357 00bc 82B2     		uxth	r2, r0
 358 00be 6946     		mov	r1, sp
 359 00c0 1148     		ldr	r0, .L27+8
 360 00c2 FFF7FEFF 		bl	HAL_UART_Transmit
 361 00c6 AFE7     		b	.L17
 362              	.L19:
 363 00c8 0D4B     		ldr	r3, .L27
 364 00ca DB68     		ldr	r3, [r3, #12]
 365 00cc C31A     		subs	r3, r0, r3
 366 00ce B3F5967F 		cmp	r3, #300
 367 00d2 A9D9     		bls	.L17
 368 00d4 0A4B     		ldr	r3, .L27
 369 00d6 D860     		str	r0, [r3, #12]
 370 00d8 0E4B     		ldr	r3, .L27+20
 371 00da 93E80300 		ldm	r3, {r0, r1}
 372 00de 0090     		str	r0, [sp]
 373 00e0 ADF80410 		strh	r1, [sp, #4]	@ movhi
 374 00e4 090C     		lsrs	r1, r1, #16
 375 00e6 8DF80610 		strb	r1, [sp, #6]
 376 00ea 6846     		mov	r0, sp
 377 00ec FFF7FEFF 		bl	strlen
 378 00f0 4FF0FF33 		mov	r3, #-1
 379 00f4 82B2     		uxth	r2, r0
 380 00f6 6946     		mov	r1, sp
 381 00f8 0348     		ldr	r0, .L27+8
 382 00fa FFF7FEFF 		bl	HAL_UART_Transmit
 383 00fe 93E7     		b	.L17
 384              	.L28:
 385              		.align	2
 386              	.L27:
 387 0100 00000000 		.word	lastInterruptTime
 388 0104 00000000 		.word	.LC0
 389 0108 00000000 		.word	huart1
 390 010c 08000000 		.word	.LC1
 391 0110 10000000 		.word	.LC2
 392 0114 18000000 		.word	.LC3
 394              		.section	.text.ADC1_Start,"ax",%progbits
 395              		.align	1
 396              		.global	ADC1_Start
 397              		.syntax unified
 398              		.thumb
 399              		.thumb_func
 401              	ADC1_Start:
 402              		@ args = 0, pretend = 0, frame = 0
 403              		@ frame_needed = 0, uses_anonymous_args = 0
 404              		@ link register save eliminated.
 405 0000 00F01F00 		and	r0, r0, #31
 406 0004 034B     		ldr	r3, .L30
 407 0006 5863     		str	r0, [r3, #52]
 408 0008 9A68     		ldr	r2, [r3, #8]
 409 000a 42F08042 		orr	r2, r2, #1073741824
 410 000e 9A60     		str	r2, [r3, #8]
ARM GAS  C:\Users\PNGUBO~1\AppData\Local\Temp\cc2cBPbh.s 			page 8


 411 0010 7047     		bx	lr
 412              	.L31:
 413 0012 00BF     		.align	2
 414              	.L30:
 415 0014 00200140 		.word	1073815552
 417              		.section	.text.USART1_IRQHandler,"ax",%progbits
 418              		.align	1
 419              		.global	USART1_IRQHandler
 420              		.syntax unified
 421              		.thumb
 422              		.thumb_func
 424              	USART1_IRQHandler:
 425              		@ args = 0, pretend = 0, frame = 0
 426              		@ frame_needed = 0, uses_anonymous_args = 0
 427 0000 08B5     		push	{r3, lr}
 428 0002 0248     		ldr	r0, .L34
 429 0004 FFF7FEFF 		bl	HAL_UART_IRQHandler
 430 0008 08BD     		pop	{r3, pc}
 431              	.L35:
 432 000a 00BF     		.align	2
 433              	.L34:
 434 000c 00000000 		.word	huart1
 436              		.section	.text.ADC_IRQHandler,"ax",%progbits
 437              		.align	1
 438              		.global	ADC_IRQHandler
 439              		.syntax unified
 440              		.thumb
 441              		.thumb_func
 443              	ADC_IRQHandler:
 444              		@ args = 0, pretend = 0, frame = 0
 445              		@ frame_needed = 0, uses_anonymous_args = 0
 446 0000 08B5     		push	{r3, lr}
 447 0002 0E4B     		ldr	r3, .L41
 448 0004 1B68     		ldr	r3, [r3]
 449 0006 13F0020F 		tst	r3, #2
 450 000a 0DD0     		beq	.L36
 451 000c 0B4B     		ldr	r3, .L41
 452 000e DB6C     		ldr	r3, [r3, #76]
 453 0010 9BB2     		uxth	r3, r3
 454 0012 0B4A     		ldr	r2, .L41+4
 455 0014 1278     		ldrb	r2, [r2]	@ zero_extendqisi2
 456 0016 052A     		cmp	r2, #5
 457 0018 07D0     		beq	.L40
 458 001a 0A4A     		ldr	r2, .L41+8
 459 001c 1380     		strh	r3, [r2]	@ movhi
 460 001e 0520     		movs	r0, #5
 461 0020 074B     		ldr	r3, .L41+4
 462 0022 1870     		strb	r0, [r3]
 463 0024 FFF7FEFF 		bl	ADC1_Start
 464              	.L36:
 465 0028 08BD     		pop	{r3, pc}
 466              	.L40:
 467 002a 074A     		ldr	r2, .L41+12
 468 002c 1380     		strh	r3, [r2]	@ movhi
 469 002e 0620     		movs	r0, #6
 470 0030 034B     		ldr	r3, .L41+4
 471 0032 1870     		strb	r0, [r3]
ARM GAS  C:\Users\PNGUBO~1\AppData\Local\Temp\cc2cBPbh.s 			page 9


 472 0034 FFF7FEFF 		bl	ADC1_Start
 473 0038 F6E7     		b	.L36
 474              	.L42:
 475 003a 00BF     		.align	2
 476              	.L41:
 477 003c 00200140 		.word	1073815552
 478 0040 00000000 		.word	current_channel.0
 479 0044 00000000 		.word	pot1_value
 480 0048 00000000 		.word	pot0_value
 482              		.section	.text.HAL_UART_RxCpltCallback,"ax",%progbits
 483              		.align	1
 484              		.global	HAL_UART_RxCpltCallback
 485              		.syntax unified
 486              		.thumb
 487              		.thumb_func
 489              	HAL_UART_RxCpltCallback:
 490              		@ args = 0, pretend = 0, frame = 0
 491              		@ frame_needed = 0, uses_anonymous_args = 0
 492 0000 08B5     		push	{r3, lr}
 493 0002 0268     		ldr	r2, [r0]
 494 0004 114B     		ldr	r3, .L50
 495 0006 9A42     		cmp	r2, r3
 496 0008 00D0     		beq	.L49
 497              	.L43:
 498 000a 08BD     		pop	{r3, pc}
 499              	.L49:
 500 000c 104B     		ldr	r3, .L50+4
 501 000e 1B78     		ldrb	r3, [r3]	@ zero_extendqisi2
 502 0010 0A2B     		cmp	r3, #10
 503 0012 0BD0     		beq	.L45
 504 0014 0D2B     		cmp	r3, #13
 505 0016 09D0     		beq	.L45
 506 0018 0E4A     		ldr	r2, .L50+8
 507 001a 1278     		ldrb	r2, [r2]	@ zero_extendqisi2
 508 001c 302A     		cmp	r2, #48
 509 001e 0ED8     		bhi	.L47
 510 0020 501C     		adds	r0, r2, #1
 511 0022 0C49     		ldr	r1, .L50+8
 512 0024 0870     		strb	r0, [r1]
 513 0026 0C49     		ldr	r1, .L50+12
 514 0028 8B54     		strb	r3, [r1, r2]
 515 002a 08E0     		b	.L47
 516              	.L45:
 517 002c 094B     		ldr	r3, .L50+8
 518 002e 1978     		ldrb	r1, [r3]	@ zero_extendqisi2
 519 0030 0022     		movs	r2, #0
 520 0032 0948     		ldr	r0, .L50+12
 521 0034 4254     		strb	r2, [r0, r1]
 522 0036 1A70     		strb	r2, [r3]
 523 0038 084B     		ldr	r3, .L50+16
 524 003a 0122     		movs	r2, #1
 525 003c 1A70     		strb	r2, [r3]
 526              	.L47:
 527 003e 0122     		movs	r2, #1
 528 0040 0349     		ldr	r1, .L50+4
 529 0042 0748     		ldr	r0, .L50+20
 530 0044 FFF7FEFF 		bl	HAL_UART_Receive_IT
ARM GAS  C:\Users\PNGUBO~1\AppData\Local\Temp\cc2cBPbh.s 			page 10


 531 0048 DFE7     		b	.L43
 532              	.L51:
 533 004a 00BF     		.align	2
 534              	.L50:
 535 004c 00100140 		.word	1073811456
 536 0050 00000000 		.word	rxByte
 537 0054 00000000 		.word	rxIndex
 538 0058 00000000 		.word	rxBuffer
 539 005c 00000000 		.word	stringReady
 540 0060 00000000 		.word	huart1
 542              		.section	.text.ADC1_Init,"ax",%progbits
 543              		.align	1
 544              		.global	ADC1_Init
 545              		.syntax unified
 546              		.thumb
 547              		.thumb_func
 549              	ADC1_Init:
 550              		@ args = 0, pretend = 0, frame = 0
 551              		@ frame_needed = 0, uses_anonymous_args = 0
 552              		@ link register save eliminated.
 553 0000 154A     		ldr	r2, .L53
 554 0002 536C     		ldr	r3, [r2, #68]
 555 0004 43F48073 		orr	r3, r3, #256
 556 0008 5364     		str	r3, [r2, #68]
 557 000a 144B     		ldr	r3, .L53+4
 558 000c 5A68     		ldr	r2, [r3, #4]
 559 000e 22F44032 		bic	r2, r2, #196608
 560 0012 5A60     		str	r2, [r3, #4]
 561 0014 5A68     		ldr	r2, [r3, #4]
 562 0016 42F48032 		orr	r2, r2, #65536
 563 001a 5A60     		str	r2, [r3, #4]
 564 001c A3F54073 		sub	r3, r3, #768
 565 0020 0022     		movs	r2, #0
 566 0022 5A60     		str	r2, [r3, #4]
 567 0024 4FF48061 		mov	r1, #1024
 568 0028 9960     		str	r1, [r3, #8]
 569 002a DA62     		str	r2, [r3, #44]
 570 002c 1A69     		ldr	r2, [r3, #16]
 571 002e 22F4FC12 		bic	r2, r2, #2064384
 572 0032 1A61     		str	r2, [r3, #16]
 573 0034 1A69     		ldr	r2, [r3, #16]
 574 0036 42F4FC12 		orr	r2, r2, #2064384
 575 003a 1A61     		str	r2, [r3, #16]
 576 003c 5A68     		ldr	r2, [r3, #4]
 577 003e 42F02002 		orr	r2, r2, #32
 578 0042 5A60     		str	r2, [r3, #4]
 579 0044 064A     		ldr	r2, .L53+8
 580 0046 4FF48021 		mov	r1, #262144
 581 004a 1160     		str	r1, [r2]
 582 004c 9A68     		ldr	r2, [r3, #8]
 583 004e 42F00102 		orr	r2, r2, #1
 584 0052 9A60     		str	r2, [r3, #8]
 585 0054 7047     		bx	lr
 586              	.L54:
 587 0056 00BF     		.align	2
 588              	.L53:
 589 0058 00380240 		.word	1073887232
ARM GAS  C:\Users\PNGUBO~1\AppData\Local\Temp\cc2cBPbh.s 			page 11


 590 005c 00230140 		.word	1073816320
 591 0060 00E100E0 		.word	-536813312
 593              		.section	.text.Error_Handler,"ax",%progbits
 594              		.align	1
 595              		.global	Error_Handler
 596              		.syntax unified
 597              		.thumb
 598              		.thumb_func
 600              	Error_Handler:
 601              		@ Volatile: function does not return.
 602              		@ args = 0, pretend = 0, frame = 0
 603              		@ frame_needed = 0, uses_anonymous_args = 0
 604              		@ link register save eliminated.
 605              		.syntax unified
 606              	@ 962 "Drivers/CMSIS/Include/cmsis_gcc.h" 1
 607 0000 72B6     		cpsid i
 608              	@ 0 "" 2
 609              		.thumb
 610              		.syntax unified
 611              	.L56:
 612 0002 FEE7     		b	.L56
 614              		.section	.text.UART1_Init,"ax",%progbits
 615              		.align	1
 616              		.syntax unified
 617              		.thumb
 618              		.thumb_func
 620              	UART1_Init:
 621              		@ args = 0, pretend = 0, frame = 32
 622              		@ frame_needed = 0, uses_anonymous_args = 0
 623 0000 30B5     		push	{r4, r5, lr}
 624 0002 89B0     		sub	sp, sp, #36
 625 0004 0024     		movs	r4, #0
 626 0006 0194     		str	r4, [sp, #4]
 627 0008 1E4B     		ldr	r3, .L61
 628 000a 5A6C     		ldr	r2, [r3, #68]
 629 000c 42F01002 		orr	r2, r2, #16
 630 0010 5A64     		str	r2, [r3, #68]
 631 0012 5A6C     		ldr	r2, [r3, #68]
 632 0014 02F01002 		and	r2, r2, #16
 633 0018 0192     		str	r2, [sp, #4]
 634 001a 019A     		ldr	r2, [sp, #4]
 635 001c 0294     		str	r4, [sp, #8]
 636 001e 1A6B     		ldr	r2, [r3, #48]
 637 0020 42F00102 		orr	r2, r2, #1
 638 0024 1A63     		str	r2, [r3, #48]
 639 0026 1B6B     		ldr	r3, [r3, #48]
 640 0028 03F00103 		and	r3, r3, #1
 641 002c 0293     		str	r3, [sp, #8]
 642 002e 029B     		ldr	r3, [sp, #8]
 643 0030 03A9     		add	r1, sp, #12
 644 0032 0394     		str	r4, [sp, #12]
 645 0034 4C60     		str	r4, [r1, #4]
 646 0036 8C60     		str	r4, [r1, #8]
 647 0038 CC60     		str	r4, [r1, #12]
 648 003a 0C61     		str	r4, [r1, #16]
 649 003c 4FF4C063 		mov	r3, #1536
 650 0040 0393     		str	r3, [sp, #12]
ARM GAS  C:\Users\PNGUBO~1\AppData\Local\Temp\cc2cBPbh.s 			page 12


 651 0042 0223     		movs	r3, #2
 652 0044 0493     		str	r3, [sp, #16]
 653 0046 0323     		movs	r3, #3
 654 0048 0693     		str	r3, [sp, #24]
 655 004a 0723     		movs	r3, #7
 656 004c 0793     		str	r3, [sp, #28]
 657 004e 0E48     		ldr	r0, .L61+4
 658 0050 FFF7FEFF 		bl	HAL_GPIO_Init
 659 0054 0D4D     		ldr	r5, .L61+8
 660 0056 0E4B     		ldr	r3, .L61+12
 661 0058 2B60     		str	r3, [r5]
 662 005a 4FF4E133 		mov	r3, #115200
 663 005e 6B60     		str	r3, [r5, #4]
 664 0060 AC60     		str	r4, [r5, #8]
 665 0062 EC60     		str	r4, [r5, #12]
 666 0064 2C61     		str	r4, [r5, #16]
 667 0066 0C23     		movs	r3, #12
 668 0068 6B61     		str	r3, [r5, #20]
 669 006a AC61     		str	r4, [r5, #24]
 670 006c EC61     		str	r4, [r5, #28]
 671 006e 2520     		movs	r0, #37
 672 0070 FFF7FEFF 		bl	HAL_NVIC_EnableIRQ
 673 0074 2846     		mov	r0, r5
 674 0076 FFF7FEFF 		bl	HAL_UART_Init
 675 007a 08B9     		cbnz	r0, .L60
 676 007c 09B0     		add	sp, sp, #36
 677              		@ sp needed
 678 007e 30BD     		pop	{r4, r5, pc}
 679              	.L60:
 680 0080 FFF7FEFF 		bl	Error_Handler
 681              	.L62:
 682              		.align	2
 683              	.L61:
 684 0084 00380240 		.word	1073887232
 685 0088 00000240 		.word	1073872896
 686 008c 00000000 		.word	huart1
 687 0090 00100140 		.word	1073811456
 689              		.section	.text.SystemClock_Config,"ax",%progbits
 690              		.align	1
 691              		.global	SystemClock_Config
 692              		.syntax unified
 693              		.thumb
 694              		.thumb_func
 696              	SystemClock_Config:
 697              		@ args = 0, pretend = 0, frame = 80
 698              		@ frame_needed = 0, uses_anonymous_args = 0
 699 0000 10B5     		push	{r4, lr}
 700 0002 94B0     		sub	sp, sp, #80
 701 0004 07AC     		add	r4, sp, #28
 702 0006 3422     		movs	r2, #52
 703 0008 0021     		movs	r1, #0
 704 000a 2046     		mov	r0, r4
 705 000c FFF7FEFF 		bl	memset
 706 0010 0023     		movs	r3, #0
 707 0012 0293     		str	r3, [sp, #8]
 708 0014 0393     		str	r3, [sp, #12]
 709 0016 0493     		str	r3, [sp, #16]
ARM GAS  C:\Users\PNGUBO~1\AppData\Local\Temp\cc2cBPbh.s 			page 13


 710 0018 0593     		str	r3, [sp, #20]
 711 001a 0693     		str	r3, [sp, #24]
 712 001c 0093     		str	r3, [sp]
 713 001e 194A     		ldr	r2, .L69
 714 0020 116C     		ldr	r1, [r2, #64]
 715 0022 41F08051 		orr	r1, r1, #268435456
 716 0026 1164     		str	r1, [r2, #64]
 717 0028 126C     		ldr	r2, [r2, #64]
 718 002a 02F08052 		and	r2, r2, #268435456
 719 002e 0092     		str	r2, [sp]
 720 0030 009A     		ldr	r2, [sp]
 721 0032 0193     		str	r3, [sp, #4]
 722 0034 1449     		ldr	r1, .L69+4
 723 0036 0A68     		ldr	r2, [r1]
 724 0038 22F44042 		bic	r2, r2, #49152
 725 003c 42F48042 		orr	r2, r2, #16384
 726 0040 0A60     		str	r2, [r1]
 727 0042 0A68     		ldr	r2, [r1]
 728 0044 02F44042 		and	r2, r2, #49152
 729 0048 0192     		str	r2, [sp, #4]
 730 004a 019A     		ldr	r2, [sp, #4]
 731 004c 0222     		movs	r2, #2
 732 004e 0792     		str	r2, [sp, #28]
 733 0050 0122     		movs	r2, #1
 734 0052 0A92     		str	r2, [sp, #40]
 735 0054 1022     		movs	r2, #16
 736 0056 0B92     		str	r2, [sp, #44]
 737 0058 0D93     		str	r3, [sp, #52]
 738 005a 2046     		mov	r0, r4
 739 005c FFF7FEFF 		bl	HAL_RCC_OscConfig
 740 0060 60B9     		cbnz	r0, .L67
 741 0062 0F23     		movs	r3, #15
 742 0064 0293     		str	r3, [sp, #8]
 743 0066 0021     		movs	r1, #0
 744 0068 0391     		str	r1, [sp, #12]
 745 006a 0491     		str	r1, [sp, #16]
 746 006c 0591     		str	r1, [sp, #20]
 747 006e 0691     		str	r1, [sp, #24]
 748 0070 02A8     		add	r0, sp, #8
 749 0072 FFF7FEFF 		bl	HAL_RCC_ClockConfig
 750 0076 18B9     		cbnz	r0, .L68
 751 0078 14B0     		add	sp, sp, #80
 752              		@ sp needed
 753 007a 10BD     		pop	{r4, pc}
 754              	.L67:
 755 007c FFF7FEFF 		bl	Error_Handler
 756              	.L68:
 757 0080 FFF7FEFF 		bl	Error_Handler
 758              	.L70:
 759              		.align	2
 760              	.L69:
 761 0084 00380240 		.word	1073887232
 762 0088 00700040 		.word	1073770496
 764              		.section	.text.rtrim,"ax",%progbits
 765              		.align	1
 766              		.global	rtrim
 767              		.syntax unified
ARM GAS  C:\Users\PNGUBO~1\AppData\Local\Temp\cc2cBPbh.s 			page 14


 768              		.thumb
 769              		.thumb_func
 771              	rtrim:
 772              		@ args = 0, pretend = 0, frame = 0
 773              		@ frame_needed = 0, uses_anonymous_args = 0
 774 0000 10B5     		push	{r4, lr}
 775 0002 0446     		mov	r4, r0
 776 0004 FFF7FEFF 		bl	strlen
 777 0008 02E0     		b	.L72
 778              	.L74:
 779 000a 0022     		movs	r2, #0
 780 000c E254     		strb	r2, [r4, r3]
 781 000e 0138     		subs	r0, r0, #1
 782              	.L72:
 783 0010 0028     		cmp	r0, #0
 784 0012 03DD     		ble	.L71
 785 0014 431E     		subs	r3, r0, #1
 786 0016 E25C     		ldrb	r2, [r4, r3]	@ zero_extendqisi2
 787 0018 202A     		cmp	r2, #32
 788 001a F6D0     		beq	.L74
 789              	.L71:
 790 001c 10BD     		pop	{r4, pc}
 792              		.section	.rodata.parseLIValue.str1.4,"aMS",%progbits,1
 793              		.align	2
 794              	.LC4:
 795 0000 25327320 		.ascii	"%2s %d\000"
 795      256400
 796 0007 00       		.align	2
 797              	.LC5:
 798 0008 4C4900   		.ascii	"LI\000"
 799              		.section	.text.parseLIValue,"ax",%progbits
 800              		.align	1
 801              		.global	parseLIValue
 802              		.syntax unified
 803              		.thumb
 804              		.thumb_func
 806              	parseLIValue:
 807              		@ args = 0, pretend = 0, frame = 32
 808              		@ frame_needed = 0, uses_anonymous_args = 0
 809 0000 30B5     		push	{r4, r5, lr}
 810 0002 89B0     		sub	sp, sp, #36
 811 0004 0146     		mov	r1, r0
 812 0006 03AC     		add	r4, sp, #12
 813 0008 1322     		movs	r2, #19
 814 000a 2046     		mov	r0, r4
 815 000c FFF7FEFF 		bl	strncpy
 816 0010 0025     		movs	r5, #0
 817 0012 8DF81F50 		strb	r5, [sp, #31]
 818 0016 2046     		mov	r0, r4
 819 0018 FFF7FEFF 		bl	rtrim
 820 001c 02AA     		add	r2, sp, #8
 821 001e ADF80850 		strh	r5, [sp, #8]	@ movhi
 822 0022 9570     		strb	r5, [r2, #2]
 823 0024 4FF0FF33 		mov	r3, #-1
 824 0028 0193     		str	r3, [sp, #4]
 825 002a 01AB     		add	r3, sp, #4
 826 002c 0E49     		ldr	r1, .L83
ARM GAS  C:\Users\PNGUBO~1\AppData\Local\Temp\cc2cBPbh.s 			page 15


 827 002e 2046     		mov	r0, r4
 828 0030 FFF7FEFF 		bl	sscanf
 829 0034 0228     		cmp	r0, #2
 830 0036 0ED1     		bne	.L78
 831 0038 0C49     		ldr	r1, .L83+4
 832 003a 02A8     		add	r0, sp, #8
 833 003c FFF7FEFF 		bl	strcmp
 834 0040 60B9     		cbnz	r0, .L79
 835 0042 0198     		ldr	r0, [sp, #4]
 836 0044 A842     		cmp	r0, r5
 837 0046 0CDB     		blt	.L80
 838 0048 FF28     		cmp	r0, #255
 839 004a 01DC     		bgt	.L82
 840              	.L76:
 841 004c 09B0     		add	sp, sp, #36
 842              		@ sp needed
 843 004e 30BD     		pop	{r4, r5, pc}
 844              	.L82:
 845 0050 4FF0FF30 		mov	r0, #-1
 846 0054 FAE7     		b	.L76
 847              	.L78:
 848 0056 4FF0FF30 		mov	r0, #-1
 849 005a F7E7     		b	.L76
 850              	.L79:
 851 005c 4FF0FF30 		mov	r0, #-1
 852 0060 F4E7     		b	.L76
 853              	.L80:
 854 0062 4FF0FF30 		mov	r0, #-1
 855 0066 F1E7     		b	.L76
 856              	.L84:
 857              		.align	2
 858              	.L83:
 859 0068 00000000 		.word	.LC4
 860 006c 08000000 		.word	.LC5
 862              		.section	.rodata.parseWRCommand.str1.4,"aMS",%progbits,1
 863              		.align	2
 864              	.LC6:
 865 0000 25327320 		.ascii	"%2s %[^\012]\000"
 865      255B5E0A 
 865      5D00
 866 000a 0000     		.align	2
 867              	.LC7:
 868 000c 575200   		.ascii	"WR\000"
 869              		.section	.text.parseWRCommand,"ax",%progbits
 870              		.align	1
 871              		.global	parseWRCommand
 872              		.syntax unified
 873              		.thumb
 874              		.thumb_func
 876              	parseWRCommand:
 877              		@ args = 0, pretend = 0, frame = 520
 878              		@ frame_needed = 0, uses_anonymous_args = 0
 879 0000 2DE9F047 		push	{r4, r5, r6, r7, r8, r9, r10, lr}
 880 0004 ADF5027D 		sub	sp, sp, #520
 881 0008 8946     		mov	r9, r1
 882 000a 9046     		mov	r8, r2
 883 000c 1E46     		mov	r6, r3
ARM GAS  C:\Users\PNGUBO~1\AppData\Local\Temp\cc2cBPbh.s 			page 16


 884 000e 42AC     		add	r4, sp, #264
 885 0010 FF22     		movs	r2, #255
 886 0012 0146     		mov	r1, r0
 887 0014 2046     		mov	r0, r4
 888 0016 FFF7FEFF 		bl	strncpy
 889 001a 0025     		movs	r5, #0
 890 001c 8DF80752 		strb	r5, [sp, #519]
 891 0020 2046     		mov	r0, r4
 892 0022 FFF7FEFF 		bl	rtrim
 893 0026 41AF     		add	r7, sp, #260
 894 0028 ADF80451 		strh	r5, [sp, #260]	@ movhi
 895 002c 8DF80651 		strb	r5, [sp, #262]
 896 0030 0DF1040A 		add	r10, sp, #4
 897 0034 4FF48072 		mov	r2, #256
 898 0038 2946     		mov	r1, r5
 899 003a 5046     		mov	r0, r10
 900 003c FFF7FEFF 		bl	memset
 901 0040 5346     		mov	r3, r10
 902 0042 3A46     		mov	r2, r7
 903 0044 1949     		ldr	r1, .L90
 904 0046 2046     		mov	r0, r4
 905 0048 FFF7FEFF 		bl	sscanf
 906 004c 0228     		cmp	r0, #2
 907 004e 24D1     		bne	.L87
 908 0050 1749     		ldr	r1, .L90+4
 909 0052 3846     		mov	r0, r7
 910 0054 FFF7FEFF 		bl	strcmp
 911 0058 0446     		mov	r4, r0
 912 005a 20BB     		cbnz	r0, .L88
 913 005c 3B21     		movs	r1, #59
 914 005e 5046     		mov	r0, r10
 915 0060 FFF7FEFF 		bl	strchr
 916 0064 D0B1     		cbz	r0, .L85
 917 0066 0446     		mov	r4, r0
 918 0068 04F8015B 		strb	r5, [r4], #1
 919 006c 013E     		subs	r6, r6, #1
 920 006e 3246     		mov	r2, r6
 921 0070 5146     		mov	r1, r10
 922 0072 4846     		mov	r0, r9
 923 0074 FFF7FEFF 		bl	strncpy
 924 0078 09F80650 		strb	r5, [r9, r6]
 925 007c 3246     		mov	r2, r6
 926 007e 2146     		mov	r1, r4
 927 0080 4046     		mov	r0, r8
 928 0082 FFF7FEFF 		bl	strncpy
 929 0086 08F80650 		strb	r5, [r8, r6]
 930 008a 4846     		mov	r0, r9
 931 008c FFF7FEFF 		bl	rtrim
 932 0090 4046     		mov	r0, r8
 933 0092 FFF7FEFF 		bl	rtrim
 934 0096 0124     		movs	r4, #1
 935 0098 00E0     		b	.L85
 936              	.L87:
 937 009a 0024     		movs	r4, #0
 938              	.L85:
 939 009c 2046     		mov	r0, r4
 940 009e 0DF5027D 		add	sp, sp, #520
ARM GAS  C:\Users\PNGUBO~1\AppData\Local\Temp\cc2cBPbh.s 			page 17


 941              		@ sp needed
 942 00a2 BDE8F087 		pop	{r4, r5, r6, r7, r8, r9, r10, pc}
 943              	.L88:
 944 00a6 0024     		movs	r4, #0
 945 00a8 F8E7     		b	.L85
 946              	.L91:
 947 00aa 00BF     		.align	2
 948              	.L90:
 949 00ac 00000000 		.word	.LC6
 950 00b0 0C000000 		.word	.LC7
 952              		.section	.rodata.handle.str1.4,"aMS",%progbits,1
 953              		.align	2
 954              	.LC8:
 955 0000 436F6E74 		.ascii	"Controller\000"
 955      726F6C6C 
 955      657200
 956 000b 00       		.align	2
 957              	.LC9:
 958 000c 436F6E6E 		.ascii	"Connected.\000"
 958      65637465 
 958      642E00
 959 0017 00       		.align	2
 960              	.LC14:
 961 0018 44697363 		.ascii	"Disconnected\000"
 961      6F6E6E65 
 961      63746564 
 961      00
 962 0025 000000   		.align	2
 963              	.LC10:
 964 0028 4845590D 		.ascii	"HEY\015\012\000"
 964      0A00
 965 002e 0000     		.align	2
 966              	.LC11:
 967 0030 5945530D 		.ascii	"YES\015\012\000"
 967      0A00
 968 0036 0000     		.align	2
 969              	.LC12:
 970 0038 4449440D 		.ascii	"DID\015\012\000"
 970      0A00
 971 003e 0000     		.align	2
 972              	.LC13:
 973 0040 4C49540D 		.ascii	"LIT\015\012\000"
 973      0A00
 974 0046 0000     		.align	2
 975              	.LC15:
 976 0048 53484F0D 		.ascii	"SHO\015\012\000"
 976      0A00
 977              		.section	.text.handle,"ax",%progbits
 978              		.align	1
 979              		.global	handle
 980              		.syntax unified
 981              		.thumb
 982              		.thumb_func
 984              	handle:
 985              		@ args = 0, pretend = 0, frame = 112
 986              		@ frame_needed = 0, uses_anonymous_args = 0
 987 0000 30B5     		push	{r4, r5, lr}
ARM GAS  C:\Users\PNGUBO~1\AppData\Local\Temp\cc2cBPbh.s 			page 18


 988 0002 9DB0     		sub	sp, sp, #116
 989 0004 0446     		mov	r4, r0
 990 0006 0378     		ldrb	r3, [r0]	@ zero_extendqisi2
 991 0008 482B     		cmp	r3, #72
 992 000a 0DD0     		beq	.L101
 993              	.L93:
 994 000c 2378     		ldrb	r3, [r4]	@ zero_extendqisi2
 995 000e 552B     		cmp	r3, #85
 996 0010 2BD0     		beq	.L102
 997              	.L94:
 998 0012 2378     		ldrb	r3, [r4]	@ zero_extendqisi2
 999 0014 572B     		cmp	r3, #87
 1000 0016 3DD0     		beq	.L103
 1001              	.L95:
 1002 0018 2378     		ldrb	r3, [r4]	@ zero_extendqisi2
 1003 001a 4C2B     		cmp	r3, #76
 1004 001c 62D0     		beq	.L104
 1005              	.L97:
 1006 001e 2378     		ldrb	r3, [r4]	@ zero_extendqisi2
 1007 0020 452B     		cmp	r3, #69
 1008 0022 7CD0     		beq	.L105
 1009              	.L92:
 1010 0024 1DB0     		add	sp, sp, #116
 1011              		@ sp needed
 1012 0026 30BD     		pop	{r4, r5, pc}
 1013              	.L101:
 1014 0028 4378     		ldrb	r3, [r0, #1]	@ zero_extendqisi2
 1015 002a 492B     		cmp	r3, #73
 1016 002c EED1     		bne	.L93
 1017 002e 0120     		movs	r0, #1
 1018 0030 FFF7FEFF 		bl	lcd_command
 1019 0034 4B48     		ldr	r0, .L107
 1020 0036 FFF7FEFF 		bl	lcd_putstring
 1021 003a C020     		movs	r0, #192
 1022 003c FFF7FEFF 		bl	lcd_command
 1023 0040 4948     		ldr	r0, .L107+4
 1024 0042 FFF7FEFF 		bl	lcd_putstring
 1025 0046 494B     		ldr	r3, .L107+8
 1026 0048 93E80300 		ldm	r3, {r0, r1}
 1027 004c 0F90     		str	r0, [sp, #60]
 1028 004e ADF84010 		strh	r1, [sp, #64]	@ movhi
 1029 0052 0FAD     		add	r5, sp, #60
 1030 0054 2846     		mov	r0, r5
 1031 0056 FFF7FEFF 		bl	strlen
 1032 005a 4FF0FF33 		mov	r3, #-1
 1033 005e 82B2     		uxth	r2, r0
 1034 0060 2946     		mov	r1, r5
 1035 0062 4348     		ldr	r0, .L107+12
 1036 0064 FFF7FEFF 		bl	HAL_UART_Transmit
 1037 0068 D0E7     		b	.L93
 1038              	.L102:
 1039 006a 6378     		ldrb	r3, [r4, #1]	@ zero_extendqisi2
 1040 006c 502B     		cmp	r3, #80
 1041 006e D0D1     		bne	.L94
 1042 0070 404B     		ldr	r3, .L107+16
 1043 0072 93E80300 		ldm	r3, {r0, r1}
 1044 0076 0F90     		str	r0, [sp, #60]
ARM GAS  C:\Users\PNGUBO~1\AppData\Local\Temp\cc2cBPbh.s 			page 19


 1045 0078 ADF84010 		strh	r1, [sp, #64]	@ movhi
 1046 007c 0FAD     		add	r5, sp, #60
 1047 007e 2846     		mov	r0, r5
 1048 0080 FFF7FEFF 		bl	strlen
 1049 0084 4FF0FF33 		mov	r3, #-1
 1050 0088 82B2     		uxth	r2, r0
 1051 008a 2946     		mov	r1, r5
 1052 008c 3848     		ldr	r0, .L107+12
 1053 008e FFF7FEFF 		bl	HAL_UART_Transmit
 1054 0092 BEE7     		b	.L94
 1055              	.L103:
 1056 0094 6378     		ldrb	r3, [r4, #1]	@ zero_extendqisi2
 1057 0096 522B     		cmp	r3, #82
 1058 0098 BED1     		bne	.L95
 1059 009a 3223     		movs	r3, #50
 1060 009c 0FAA     		add	r2, sp, #60
 1061 009e 02A9     		add	r1, sp, #8
 1062 00a0 2046     		mov	r0, r4
 1063 00a2 FFF7FEFF 		bl	parseWRCommand
 1064 00a6 80B9     		cbnz	r0, .L106
 1065              	.L96:
 1066 00a8 334B     		ldr	r3, .L107+20
 1067 00aa 93E80300 		ldm	r3, {r0, r1}
 1068 00ae 0090     		str	r0, [sp]
 1069 00b0 ADF80410 		strh	r1, [sp, #4]	@ movhi
 1070 00b4 6846     		mov	r0, sp
 1071 00b6 FFF7FEFF 		bl	strlen
 1072 00ba 4FF0FF33 		mov	r3, #-1
 1073 00be 82B2     		uxth	r2, r0
 1074 00c0 6946     		mov	r1, sp
 1075 00c2 2B48     		ldr	r0, .L107+12
 1076 00c4 FFF7FEFF 		bl	HAL_UART_Transmit
 1077 00c8 A6E7     		b	.L95
 1078              	.L106:
 1079 00ca 0120     		movs	r0, #1
 1080 00cc FFF7FEFF 		bl	lcd_command
 1081 00d0 02A8     		add	r0, sp, #8
 1082 00d2 FFF7FEFF 		bl	lcd_putstring
 1083 00d6 C020     		movs	r0, #192
 1084 00d8 FFF7FEFF 		bl	lcd_command
 1085 00dc 0FA8     		add	r0, sp, #60
 1086 00de FFF7FEFF 		bl	lcd_putstring
 1087 00e2 E1E7     		b	.L96
 1088              	.L104:
 1089 00e4 6378     		ldrb	r3, [r4, #1]	@ zero_extendqisi2
 1090 00e6 492B     		cmp	r3, #73
 1091 00e8 99D1     		bne	.L97
 1092 00ea 2046     		mov	r0, r4
 1093 00ec FFF7FEFF 		bl	parseLIValue
 1094 00f0 B0F1FF3F 		cmp	r0, #-1
 1095 00f4 01D0     		beq	.L98
 1096 00f6 214B     		ldr	r3, .L107+24
 1097 00f8 5861     		str	r0, [r3, #20]
 1098              	.L98:
 1099 00fa 214B     		ldr	r3, .L107+28
 1100 00fc 93E80300 		ldm	r3, {r0, r1}
 1101 0100 0F90     		str	r0, [sp, #60]
ARM GAS  C:\Users\PNGUBO~1\AppData\Local\Temp\cc2cBPbh.s 			page 20


 1102 0102 ADF84010 		strh	r1, [sp, #64]	@ movhi
 1103 0106 0FAD     		add	r5, sp, #60
 1104 0108 2846     		mov	r0, r5
 1105 010a FFF7FEFF 		bl	strlen
 1106 010e 4FF0FF33 		mov	r3, #-1
 1107 0112 82B2     		uxth	r2, r0
 1108 0114 2946     		mov	r1, r5
 1109 0116 1648     		ldr	r0, .L107+12
 1110 0118 FFF7FEFF 		bl	HAL_UART_Transmit
 1111 011c 7FE7     		b	.L97
 1112              	.L105:
 1113 011e 6378     		ldrb	r3, [r4, #1]	@ zero_extendqisi2
 1114 0120 532B     		cmp	r3, #83
 1115 0122 7FF47FAF 		bne	.L92
 1116 0126 0120     		movs	r0, #1
 1117 0128 FFF7FEFF 		bl	lcd_command
 1118 012c 0D48     		ldr	r0, .L107
 1119 012e FFF7FEFF 		bl	lcd_putstring
 1120 0132 C020     		movs	r0, #192
 1121 0134 FFF7FEFF 		bl	lcd_command
 1122 0138 1248     		ldr	r0, .L107+32
 1123 013a FFF7FEFF 		bl	lcd_putstring
 1124 013e 124B     		ldr	r3, .L107+36
 1125 0140 93E80300 		ldm	r3, {r0, r1}
 1126 0144 0F90     		str	r0, [sp, #60]
 1127 0146 ADF84010 		strh	r1, [sp, #64]	@ movhi
 1128 014a 0FAC     		add	r4, sp, #60
 1129 014c 2046     		mov	r0, r4
 1130 014e FFF7FEFF 		bl	strlen
 1131 0152 4FF0FF33 		mov	r3, #-1
 1132 0156 82B2     		uxth	r2, r0
 1133 0158 2146     		mov	r1, r4
 1134 015a 0548     		ldr	r0, .L107+12
 1135 015c FFF7FEFF 		bl	HAL_UART_Transmit
 1136 0160 60E7     		b	.L92
 1137              	.L108:
 1138 0162 00BF     		.align	2
 1139              	.L107:
 1140 0164 00000000 		.word	.LC8
 1141 0168 0C000000 		.word	.LC9
 1142 016c 28000000 		.word	.LC10
 1143 0170 00000000 		.word	huart1
 1144 0174 30000000 		.word	.LC11
 1145 0178 38000000 		.word	.LC12
 1146 017c 00040240 		.word	1073873920
 1147 0180 40000000 		.word	.LC13
 1148 0184 18000000 		.word	.LC14
 1149 0188 48000000 		.word	.LC15
 1151              		.section	.rodata.main.str1.4,"aMS",%progbits,1
 1152              		.align	2
 1153              	.LC16:
 1154 0000 504F5430 		.ascii	"POT0 %4u\015\012\000"
 1154      20253475 
 1154      0D0A00
 1155 000b 00       		.align	2
 1156              	.LC17:
 1157 000c 504F5431 		.ascii	"POT1 %4u\015\012\000"
ARM GAS  C:\Users\PNGUBO~1\AppData\Local\Temp\cc2cBPbh.s 			page 21


 1157      20253475 
 1157      0D0A00
 1158              		.section	.text.main,"ax",%progbits
 1159              		.align	1
 1160              		.global	main
 1161              		.syntax unified
 1162              		.thumb
 1163              		.thumb_func
 1165              	main:
 1166              		@ args = 0, pretend = 0, frame = 16
 1167              		@ frame_needed = 0, uses_anonymous_args = 0
 1168 0000 30B5     		push	{r4, r5, lr}
 1169 0002 85B0     		sub	sp, sp, #20
 1170 0004 FFF7FEFF 		bl	HAL_Init
 1171 0008 FFF7FEFF 		bl	SystemClock_Config
 1172 000c FFF7FEFF 		bl	MX_GPIO_Init
 1173 0010 FFF7FEFF 		bl	MX_DMA_Init
 1174 0014 FFF7FEFF 		bl	UART1_Init
 1175 0018 FFF7FEFF 		bl	ADC1_Init
 1176 001c 0520     		movs	r0, #5
 1177 001e FFF7FEFF 		bl	ADC1_Start
 1178 0022 0122     		movs	r2, #1
 1179 0024 3049     		ldr	r1, .L117
 1180 0026 3148     		ldr	r0, .L117+4
 1181 0028 FFF7FEFF 		bl	HAL_UART_Receive_IT
 1182 002c FFF7FEFF 		bl	init_LCD
 1183 0030 0120     		movs	r0, #1
 1184 0032 FFF7FEFF 		bl	lcd_command
 1185 0036 0FE0     		b	.L112
 1186              	.L110:
 1187 0038 2D4B     		ldr	r3, .L117+8
 1188 003a 1B88     		ldrh	r3, [r3]
 1189 003c 9BB2     		uxth	r3, r3
 1190 003e 2D4A     		ldr	r2, .L117+12
 1191 0040 1288     		ldrh	r2, [r2]
 1192 0042 92B2     		uxth	r2, r2
 1193 0044 9B1A     		subs	r3, r3, r2
 1194 0046 002B     		cmp	r3, #0
 1195 0048 B8BF     		it	lt
 1196 004a 5B42     		rsblt	r3, r3, #0
 1197 004c CD2B     		cmp	r3, #205
 1198 004e 26DC     		bgt	.L115
 1199              	.L111:
 1200 0050 294B     		ldr	r3, .L117+16
 1201 0052 1B78     		ldrb	r3, [r3]	@ zero_extendqisi2
 1202 0054 002B     		cmp	r3, #0
 1203 0056 39D1     		bne	.L116
 1204              	.L112:
 1205 0058 284B     		ldr	r3, .L117+20
 1206 005a 1B88     		ldrh	r3, [r3]
 1207 005c 9BB2     		uxth	r3, r3
 1208 005e 284A     		ldr	r2, .L117+24
 1209 0060 1288     		ldrh	r2, [r2]
 1210 0062 92B2     		uxth	r2, r2
 1211 0064 9B1A     		subs	r3, r3, r2
 1212 0066 002B     		cmp	r3, #0
 1213 0068 B8BF     		it	lt
ARM GAS  C:\Users\PNGUBO~1\AppData\Local\Temp\cc2cBPbh.s 			page 22


 1214 006a 5B42     		rsblt	r3, r3, #0
 1215 006c CD2B     		cmp	r3, #205
 1216 006e E3DD     		ble	.L110
 1217 0070 224A     		ldr	r2, .L117+20
 1218 0072 1388     		ldrh	r3, [r2]
 1219 0074 9BB2     		uxth	r3, r3
 1220 0076 2249     		ldr	r1, .L117+24
 1221 0078 0B80     		strh	r3, [r1]	@ movhi
 1222 007a 1288     		ldrh	r2, [r2]
 1223 007c 01AC     		add	r4, sp, #4
 1224 007e 92B2     		uxth	r2, r2
 1225 0080 2049     		ldr	r1, .L117+28
 1226 0082 2046     		mov	r0, r4
 1227 0084 FFF7FEFF 		bl	sprintf
 1228 0088 2046     		mov	r0, r4
 1229 008a FFF7FEFF 		bl	strlen
 1230 008e 4FF0FF33 		mov	r3, #-1
 1231 0092 82B2     		uxth	r2, r0
 1232 0094 2146     		mov	r1, r4
 1233 0096 1548     		ldr	r0, .L117+4
 1234 0098 FFF7FEFF 		bl	HAL_UART_Transmit
 1235 009c CCE7     		b	.L110
 1236              	.L115:
 1237 009e 144A     		ldr	r2, .L117+8
 1238 00a0 1388     		ldrh	r3, [r2]
 1239 00a2 9BB2     		uxth	r3, r3
 1240 00a4 1349     		ldr	r1, .L117+12
 1241 00a6 0B80     		strh	r3, [r1]	@ movhi
 1242 00a8 1288     		ldrh	r2, [r2]
 1243 00aa 01AC     		add	r4, sp, #4
 1244 00ac 92B2     		uxth	r2, r2
 1245 00ae 1649     		ldr	r1, .L117+32
 1246 00b0 2046     		mov	r0, r4
 1247 00b2 FFF7FEFF 		bl	sprintf
 1248 00b6 2046     		mov	r0, r4
 1249 00b8 FFF7FEFF 		bl	strlen
 1250 00bc 4FF0FF33 		mov	r3, #-1
 1251 00c0 82B2     		uxth	r2, r0
 1252 00c2 2146     		mov	r1, r4
 1253 00c4 0948     		ldr	r0, .L117+4
 1254 00c6 FFF7FEFF 		bl	HAL_UART_Transmit
 1255 00ca C1E7     		b	.L111
 1256              	.L116:
 1257 00cc 0025     		movs	r5, #0
 1258 00ce 0A4B     		ldr	r3, .L117+16
 1259 00d0 1D70     		strb	r5, [r3]
 1260 00d2 0E4C     		ldr	r4, .L117+36
 1261 00d4 2046     		mov	r0, r4
 1262 00d6 FFF7FEFF 		bl	handle
 1263 00da 3222     		movs	r2, #50
 1264 00dc 2946     		mov	r1, r5
 1265 00de 2046     		mov	r0, r4
 1266 00e0 FFF7FEFF 		bl	memset
 1267 00e4 B8E7     		b	.L112
 1268              	.L118:
 1269 00e6 00BF     		.align	2
 1270              	.L117:
ARM GAS  C:\Users\PNGUBO~1\AppData\Local\Temp\cc2cBPbh.s 			page 23


 1271 00e8 00000000 		.word	rxByte
 1272 00ec 00000000 		.word	huart1
 1273 00f0 00000000 		.word	pot1_value
 1274 00f4 00000000 		.word	old_pot1_value
 1275 00f8 00000000 		.word	stringReady
 1276 00fc 00000000 		.word	pot0_value
 1277 0100 00000000 		.word	old_pot0_value
 1278 0104 00000000 		.word	.LC16
 1279 0108 0C000000 		.word	.LC17
 1280 010c 00000000 		.word	rxBuffer
 1282              		.section	.data.current_channel.0,"aw"
 1285              	current_channel.0:
 1286 0000 05       		.byte	5
 1287              		.global	lastInterruptTime
 1288              		.section	.bss.lastInterruptTime,"aw",%nobits
 1289              		.align	2
 1292              	lastInterruptTime:
 1293 0000 00000000 		.space	16
 1293      00000000 
 1293      00000000 
 1293      00000000 
 1294              		.global	stringReady
 1295              		.section	.bss.stringReady,"aw",%nobits
 1298              	stringReady:
 1299 0000 00       		.space	1
 1300              		.global	rxByte
 1301              		.section	.bss.rxByte,"aw",%nobits
 1304              	rxByte:
 1305 0000 00       		.space	1
 1306              		.global	rxIndex
 1307              		.section	.bss.rxIndex,"aw",%nobits
 1310              	rxIndex:
 1311 0000 00       		.space	1
 1312              		.global	rxBuffer
 1313              		.section	.bss.rxBuffer,"aw",%nobits
 1314              		.align	2
 1317              	rxBuffer:
 1318 0000 00000000 		.space	50
 1318      00000000 
 1318      00000000 
 1318      00000000 
 1318      00000000 
 1319              		.global	old_pot1_value
 1320              		.section	.bss.old_pot1_value,"aw",%nobits
 1321              		.align	1
 1324              	old_pot1_value:
 1325 0000 0000     		.space	2
 1326              		.global	old_pot0_value
 1327              		.section	.bss.old_pot0_value,"aw",%nobits
 1328              		.align	1
 1331              	old_pot0_value:
 1332 0000 0000     		.space	2
 1333              		.global	pot1_value
 1334              		.section	.bss.pot1_value,"aw",%nobits
 1335              		.align	1
 1338              	pot1_value:
 1339 0000 0000     		.space	2
ARM GAS  C:\Users\PNGUBO~1\AppData\Local\Temp\cc2cBPbh.s 			page 24


 1340              		.global	pot0_value
 1341              		.section	.bss.pot0_value,"aw",%nobits
 1342              		.align	1
 1345              	pot0_value:
 1346 0000 0000     		.space	2
 1347              		.global	huart1
 1348              		.section	.bss.huart1,"aw",%nobits
 1349              		.align	2
 1352              	huart1:
 1353 0000 00000000 		.space	72
 1353      00000000 
 1353      00000000 
 1353      00000000 
 1353      00000000 
 1354              		.global	hdma_tim2_ch1
 1355              		.section	.bss.hdma_tim2_ch1,"aw",%nobits
 1356              		.align	2
 1359              	hdma_tim2_ch1:
 1360 0000 00000000 		.space	96
 1360      00000000 
 1360      00000000 
 1360      00000000 
 1360      00000000 
 1361              		.global	htim3
 1362              		.section	.bss.htim3,"aw",%nobits
 1363              		.align	2
 1366              	htim3:
 1367 0000 00000000 		.space	72
 1367      00000000 
 1367      00000000 
 1367      00000000 
 1367      00000000 
 1368              		.global	htim2
 1369              		.section	.bss.htim2,"aw",%nobits
 1370              		.align	2
 1373              	htim2:
 1374 0000 00000000 		.space	72
 1374      00000000 
 1374      00000000 
 1374      00000000 
 1374      00000000 
 1375              		.ident	"GCC: (xPack GNU Arm Embedded GCC x86_64) 14.2.1 20241119"
ARM GAS  C:\Users\PNGUBO~1\AppData\Local\Temp\cc2cBPbh.s 			page 25

