ARM GAS  C:\Users\PNGUBO~1\AppData\Local\Temp\ccYA2Pp6.s 			page 1


   1              		.cpu cortex-m4
   2              		.arch armv7e-m
   3              		.fpu fpv4-sp-d16
   4              		.eabi_attribute 27, 1
   5              		.eabi_attribute 28, 1
   6              		.eabi_attribute 20, 1
   7              		.eabi_attribute 21, 1
   8              		.eabi_attribute 23, 3
   9              		.eabi_attribute 24, 1
  10              		.eabi_attribute 25, 1
  11              		.eabi_attribute 26, 1
  12              		.eabi_attribute 30, 1
  13              		.eabi_attribute 34, 1
  14              		.eabi_attribute 18, 4
  15              		.file	"stm32f4xx_hal_tim.c"
  16              		.text
  17              		.section	.text.TIM_OC1_SetConfig,"ax",%progbits
  18              		.align	1
  19              		.syntax unified
  20              		.thumb
  21              		.thumb_func
  23              	TIM_OC1_SetConfig:
  24              		@ args = 0, pretend = 0, frame = 0
  25              		@ frame_needed = 0, uses_anonymous_args = 0
  26              		@ link register save eliminated.
  27 0000 30B4     		push	{r4, r5}
  28 0002 036A     		ldr	r3, [r0, #32]
  29 0004 026A     		ldr	r2, [r0, #32]
  30 0006 22F00102 		bic	r2, r2, #1
  31 000a 0262     		str	r2, [r0, #32]
  32 000c 4268     		ldr	r2, [r0, #4]
  33 000e 8469     		ldr	r4, [r0, #24]
  34 0010 24F0730C 		bic	ip, r4, #115
  35 0014 0C68     		ldr	r4, [r1]
  36 0016 44EA0C04 		orr	r4, r4, ip
  37 001a 23F0020C 		bic	ip, r3, #2
  38 001e 8B68     		ldr	r3, [r1, #8]
  39 0020 43EA0C03 		orr	r3, r3, ip
  40 0024 114D     		ldr	r5, .L7
  41 0026 A842     		cmp	r0, r5
  42 0028 03D0     		beq	.L2
  43 002a 05F58065 		add	r5, r5, #1024
  44 002e A842     		cmp	r0, r5
  45 0030 05D1     		bne	.L3
  46              	.L2:
  47 0032 23F00803 		bic	r3, r3, #8
  48 0036 CD68     		ldr	r5, [r1, #12]
  49 0038 2B43     		orrs	r3, r3, r5
  50 003a 23F00403 		bic	r3, r3, #4
  51              	.L3:
  52 003e 0B4D     		ldr	r5, .L7
  53 0040 A842     		cmp	r0, r5
  54 0042 03D0     		beq	.L4
  55 0044 05F58065 		add	r5, r5, #1024
  56 0048 A842     		cmp	r0, r5
  57 004a 07D1     		bne	.L5
  58              	.L4:
ARM GAS  C:\Users\PNGUBO~1\AppData\Local\Temp\ccYA2Pp6.s 			page 2


  59 004c 22F44072 		bic	r2, r2, #768
  60 0050 4D69     		ldr	r5, [r1, #20]
  61 0052 45EA020C 		orr	ip, r5, r2
  62 0056 8A69     		ldr	r2, [r1, #24]
  63 0058 42EA0C02 		orr	r2, r2, ip
  64              	.L5:
  65 005c 4260     		str	r2, [r0, #4]
  66 005e 8461     		str	r4, [r0, #24]
  67 0060 4A68     		ldr	r2, [r1, #4]
  68 0062 4263     		str	r2, [r0, #52]
  69 0064 0362     		str	r3, [r0, #32]
  70 0066 30BC     		pop	{r4, r5}
  71 0068 7047     		bx	lr
  72              	.L8:
  73 006a 00BF     		.align	2
  74              	.L7:
  75 006c 00000140 		.word	1073807360
  77              		.section	.text.TIM_OC3_SetConfig,"ax",%progbits
  78              		.align	1
  79              		.syntax unified
  80              		.thumb
  81              		.thumb_func
  83              	TIM_OC3_SetConfig:
  84              		@ args = 0, pretend = 0, frame = 0
  85              		@ frame_needed = 0, uses_anonymous_args = 0
  86              		@ link register save eliminated.
  87 0000 30B4     		push	{r4, r5}
  88 0002 036A     		ldr	r3, [r0, #32]
  89 0004 026A     		ldr	r2, [r0, #32]
  90 0006 22F48072 		bic	r2, r2, #256
  91 000a 0262     		str	r2, [r0, #32]
  92 000c 4268     		ldr	r2, [r0, #4]
  93 000e C469     		ldr	r4, [r0, #28]
  94 0010 24F0730C 		bic	ip, r4, #115
  95 0014 0C68     		ldr	r4, [r1]
  96 0016 44EA0C05 		orr	r5, r4, ip
  97 001a 23F40073 		bic	r3, r3, #512
  98 001e 8C68     		ldr	r4, [r1, #8]
  99 0020 43EA0423 		orr	r3, r3, r4, lsl #8
 100 0024 114C     		ldr	r4, .L15
 101 0026 A042     		cmp	r0, r4
 102 0028 03D0     		beq	.L10
 103 002a 04F58064 		add	r4, r4, #1024
 104 002e A042     		cmp	r0, r4
 105 0030 06D1     		bne	.L11
 106              	.L10:
 107 0032 23F40063 		bic	r3, r3, #2048
 108 0036 CC68     		ldr	r4, [r1, #12]
 109 0038 43EA0423 		orr	r3, r3, r4, lsl #8
 110 003c 23F48063 		bic	r3, r3, #1024
 111              	.L11:
 112 0040 0A4C     		ldr	r4, .L15
 113 0042 A042     		cmp	r0, r4
 114 0044 03D0     		beq	.L12
 115 0046 04F58064 		add	r4, r4, #1024
 116 004a A042     		cmp	r0, r4
 117 004c 07D1     		bne	.L13
ARM GAS  C:\Users\PNGUBO~1\AppData\Local\Temp\ccYA2Pp6.s 			page 3


 118              	.L12:
 119 004e 22F44052 		bic	r2, r2, #12288
 120 0052 4C69     		ldr	r4, [r1, #20]
 121 0054 42EA0412 		orr	r2, r2, r4, lsl #4
 122 0058 8C69     		ldr	r4, [r1, #24]
 123 005a 42EA0412 		orr	r2, r2, r4, lsl #4
 124              	.L13:
 125 005e 4260     		str	r2, [r0, #4]
 126 0060 C561     		str	r5, [r0, #28]
 127 0062 4A68     		ldr	r2, [r1, #4]
 128 0064 C263     		str	r2, [r0, #60]
 129 0066 0362     		str	r3, [r0, #32]
 130 0068 30BC     		pop	{r4, r5}
 131 006a 7047     		bx	lr
 132              	.L16:
 133              		.align	2
 134              	.L15:
 135 006c 00000140 		.word	1073807360
 137              		.section	.text.TIM_OC4_SetConfig,"ax",%progbits
 138              		.align	1
 139              		.syntax unified
 140              		.thumb
 141              		.thumb_func
 143              	TIM_OC4_SetConfig:
 144              		@ args = 0, pretend = 0, frame = 0
 145              		@ frame_needed = 0, uses_anonymous_args = 0
 146              		@ link register save eliminated.
 147 0000 30B4     		push	{r4, r5}
 148 0002 036A     		ldr	r3, [r0, #32]
 149 0004 026A     		ldr	r2, [r0, #32]
 150 0006 22F48052 		bic	r2, r2, #4096
 151 000a 0262     		str	r2, [r0, #32]
 152 000c 4468     		ldr	r4, [r0, #4]
 153 000e C269     		ldr	r2, [r0, #28]
 154 0010 22F4E642 		bic	r2, r2, #29440
 155 0014 0D68     		ldr	r5, [r1]
 156 0016 42EA0522 		orr	r2, r2, r5, lsl #8
 157 001a 23F40053 		bic	r3, r3, #8192
 158 001e 8D68     		ldr	r5, [r1, #8]
 159 0020 43EA0533 		orr	r3, r3, r5, lsl #12
 160 0024 094D     		ldr	r5, .L21
 161 0026 A842     		cmp	r0, r5
 162 0028 03D0     		beq	.L18
 163 002a 05F58065 		add	r5, r5, #1024
 164 002e A842     		cmp	r0, r5
 165 0030 04D1     		bne	.L19
 166              	.L18:
 167 0032 24F48044 		bic	r4, r4, #16384
 168 0036 4D69     		ldr	r5, [r1, #20]
 169 0038 44EA8514 		orr	r4, r4, r5, lsl #6
 170              	.L19:
 171 003c 4460     		str	r4, [r0, #4]
 172 003e C261     		str	r2, [r0, #28]
 173 0040 4A68     		ldr	r2, [r1, #4]
 174 0042 0264     		str	r2, [r0, #64]
 175 0044 0362     		str	r3, [r0, #32]
 176 0046 30BC     		pop	{r4, r5}
ARM GAS  C:\Users\PNGUBO~1\AppData\Local\Temp\ccYA2Pp6.s 			page 4


 177 0048 7047     		bx	lr
 178              	.L22:
 179 004a 00BF     		.align	2
 180              	.L21:
 181 004c 00000140 		.word	1073807360
 183              		.section	.text.TIM_TI1_ConfigInputStage,"ax",%progbits
 184              		.align	1
 185              		.syntax unified
 186              		.thumb
 187              		.thumb_func
 189              	TIM_TI1_ConfigInputStage:
 190              		@ args = 0, pretend = 0, frame = 0
 191              		@ frame_needed = 0, uses_anonymous_args = 0
 192              		@ link register save eliminated.
 193 0000 10B4     		push	{r4}
 194 0002 036A     		ldr	r3, [r0, #32]
 195 0004 046A     		ldr	r4, [r0, #32]
 196 0006 24F00104 		bic	r4, r4, #1
 197 000a 0462     		str	r4, [r0, #32]
 198 000c 8469     		ldr	r4, [r0, #24]
 199 000e 24F0F00C 		bic	ip, r4, #240
 200 0012 4CEA0212 		orr	r2, ip, r2, lsl #4
 201 0016 23F00A03 		bic	r3, r3, #10
 202 001a 0B43     		orrs	r3, r3, r1
 203 001c 8261     		str	r2, [r0, #24]
 204 001e 0362     		str	r3, [r0, #32]
 205 0020 5DF8044B 		ldr	r4, [sp], #4
 206 0024 7047     		bx	lr
 208              		.section	.text.TIM_TI2_SetConfig,"ax",%progbits
 209              		.align	1
 210              		.syntax unified
 211              		.thumb
 212              		.thumb_func
 214              	TIM_TI2_SetConfig:
 215              		@ args = 0, pretend = 0, frame = 0
 216              		@ frame_needed = 0, uses_anonymous_args = 0
 217              		@ link register save eliminated.
 218 0000 30B4     		push	{r4, r5}
 219 0002 056A     		ldr	r5, [r0, #32]
 220 0004 046A     		ldr	r4, [r0, #32]
 221 0006 24F01004 		bic	r4, r4, #16
 222 000a 0462     		str	r4, [r0, #32]
 223 000c 8469     		ldr	r4, [r0, #24]
 224 000e 24F4407C 		bic	ip, r4, #768
 225 0012 4CEA022C 		orr	ip, ip, r2, lsl #8
 226 0016 2CF4704C 		bic	ip, ip, #61440
 227 001a 1B03     		lsls	r3, r3, #12
 228 001c 9BB2     		uxth	r3, r3
 229 001e 43EA0C03 		orr	r3, r3, ip
 230 0022 25F0A005 		bic	r5, r5, #160
 231 0026 0901     		lsls	r1, r1, #4
 232 0028 01F0A001 		and	r1, r1, #160
 233 002c 2943     		orrs	r1, r1, r5
 234 002e 8361     		str	r3, [r0, #24]
 235 0030 0162     		str	r1, [r0, #32]
 236 0032 30BC     		pop	{r4, r5}
 237 0034 7047     		bx	lr
ARM GAS  C:\Users\PNGUBO~1\AppData\Local\Temp\ccYA2Pp6.s 			page 5


 239              		.section	.text.TIM_TI2_ConfigInputStage,"ax",%progbits
 240              		.align	1
 241              		.syntax unified
 242              		.thumb
 243              		.thumb_func
 245              	TIM_TI2_ConfigInputStage:
 246              		@ args = 0, pretend = 0, frame = 0
 247              		@ frame_needed = 0, uses_anonymous_args = 0
 248              		@ link register save eliminated.
 249 0000 10B4     		push	{r4}
 250 0002 036A     		ldr	r3, [r0, #32]
 251 0004 046A     		ldr	r4, [r0, #32]
 252 0006 24F01004 		bic	r4, r4, #16
 253 000a 0462     		str	r4, [r0, #32]
 254 000c 8469     		ldr	r4, [r0, #24]
 255 000e 24F4704C 		bic	ip, r4, #61440
 256 0012 4CEA0232 		orr	r2, ip, r2, lsl #12
 257 0016 23F0A003 		bic	r3, r3, #160
 258 001a 43EA0113 		orr	r3, r3, r1, lsl #4
 259 001e 8261     		str	r2, [r0, #24]
 260 0020 0362     		str	r3, [r0, #32]
 261 0022 5DF8044B 		ldr	r4, [sp], #4
 262 0026 7047     		bx	lr
 264              		.section	.text.TIM_TI3_SetConfig,"ax",%progbits
 265              		.align	1
 266              		.syntax unified
 267              		.thumb
 268              		.thumb_func
 270              	TIM_TI3_SetConfig:
 271              		@ args = 0, pretend = 0, frame = 0
 272              		@ frame_needed = 0, uses_anonymous_args = 0
 273              		@ link register save eliminated.
 274 0000 30B4     		push	{r4, r5}
 275 0002 056A     		ldr	r5, [r0, #32]
 276 0004 046A     		ldr	r4, [r0, #32]
 277 0006 24F48074 		bic	r4, r4, #256
 278 000a 0462     		str	r4, [r0, #32]
 279 000c C469     		ldr	r4, [r0, #28]
 280 000e 24F0030C 		bic	ip, r4, #3
 281 0012 4CEA020C 		orr	ip, ip, r2
 282 0016 2CF0F00C 		bic	ip, ip, #240
 283 001a 1B01     		lsls	r3, r3, #4
 284 001c DBB2     		uxtb	r3, r3
 285 001e 43EA0C03 		orr	r3, r3, ip
 286 0022 25F42065 		bic	r5, r5, #2560
 287 0026 0902     		lsls	r1, r1, #8
 288 0028 01F42061 		and	r1, r1, #2560
 289 002c 2943     		orrs	r1, r1, r5
 290 002e C361     		str	r3, [r0, #28]
 291 0030 0162     		str	r1, [r0, #32]
 292 0032 30BC     		pop	{r4, r5}
 293 0034 7047     		bx	lr
 295              		.section	.text.TIM_TI4_SetConfig,"ax",%progbits
 296              		.align	1
 297              		.syntax unified
 298              		.thumb
 299              		.thumb_func
ARM GAS  C:\Users\PNGUBO~1\AppData\Local\Temp\ccYA2Pp6.s 			page 6


 301              	TIM_TI4_SetConfig:
 302              		@ args = 0, pretend = 0, frame = 0
 303              		@ frame_needed = 0, uses_anonymous_args = 0
 304              		@ link register save eliminated.
 305 0000 30B4     		push	{r4, r5}
 306 0002 056A     		ldr	r5, [r0, #32]
 307 0004 046A     		ldr	r4, [r0, #32]
 308 0006 24F48054 		bic	r4, r4, #4096
 309 000a 0462     		str	r4, [r0, #32]
 310 000c C469     		ldr	r4, [r0, #28]
 311 000e 24F4407C 		bic	ip, r4, #768
 312 0012 4CEA022C 		orr	ip, ip, r2, lsl #8
 313 0016 2CF4704C 		bic	ip, ip, #61440
 314 001a 1B03     		lsls	r3, r3, #12
 315 001c 9BB2     		uxth	r3, r3
 316 001e 43EA0C03 		orr	r3, r3, ip
 317 0022 25F42045 		bic	r5, r5, #40960
 318 0026 0903     		lsls	r1, r1, #12
 319 0028 01F42041 		and	r1, r1, #40960
 320 002c 2943     		orrs	r1, r1, r5
 321 002e C361     		str	r3, [r0, #28]
 322 0030 0162     		str	r1, [r0, #32]
 323 0032 30BC     		pop	{r4, r5}
 324 0034 7047     		bx	lr
 326              		.section	.text.TIM_ITRx_SetConfig,"ax",%progbits
 327              		.align	1
 328              		.syntax unified
 329              		.thumb
 330              		.thumb_func
 332              	TIM_ITRx_SetConfig:
 333              		@ args = 0, pretend = 0, frame = 0
 334              		@ frame_needed = 0, uses_anonymous_args = 0
 335              		@ link register save eliminated.
 336 0000 8368     		ldr	r3, [r0, #8]
 337 0002 23F07003 		bic	r3, r3, #112
 338 0006 0B43     		orrs	r3, r3, r1
 339 0008 43F00703 		orr	r3, r3, #7
 340 000c 8360     		str	r3, [r0, #8]
 341 000e 7047     		bx	lr
 343              		.section	.text.HAL_TIM_Base_MspInit,"ax",%progbits
 344              		.align	1
 345              		.weak	HAL_TIM_Base_MspInit
 346              		.syntax unified
 347              		.thumb
 348              		.thumb_func
 350              	HAL_TIM_Base_MspInit:
 351              		@ args = 0, pretend = 0, frame = 0
 352              		@ frame_needed = 0, uses_anonymous_args = 0
 353              		@ link register save eliminated.
 354 0000 7047     		bx	lr
 356              		.section	.text.HAL_TIM_Base_MspDeInit,"ax",%progbits
 357              		.align	1
 358              		.weak	HAL_TIM_Base_MspDeInit
 359              		.syntax unified
 360              		.thumb
 361              		.thumb_func
 363              	HAL_TIM_Base_MspDeInit:
ARM GAS  C:\Users\PNGUBO~1\AppData\Local\Temp\ccYA2Pp6.s 			page 7


 364              		@ args = 0, pretend = 0, frame = 0
 365              		@ frame_needed = 0, uses_anonymous_args = 0
 366              		@ link register save eliminated.
 367 0000 7047     		bx	lr
 369              		.section	.text.HAL_TIM_Base_DeInit,"ax",%progbits
 370              		.align	1
 371              		.global	HAL_TIM_Base_DeInit
 372              		.syntax unified
 373              		.thumb
 374              		.thumb_func
 376              	HAL_TIM_Base_DeInit:
 377              		@ args = 0, pretend = 0, frame = 0
 378              		@ frame_needed = 0, uses_anonymous_args = 0
 379 0000 10B5     		push	{r4, lr}
 380 0002 0446     		mov	r4, r0
 381 0004 0223     		movs	r3, #2
 382 0006 80F83D30 		strb	r3, [r0, #61]
 383 000a 0368     		ldr	r3, [r0]
 384 000c 196A     		ldr	r1, [r3, #32]
 385 000e 41F21112 		movw	r2, #4369
 386 0012 1142     		tst	r1, r2
 387 0014 08D1     		bne	.L37
 388 0016 196A     		ldr	r1, [r3, #32]
 389 0018 40F24442 		movw	r2, #1092
 390 001c 1142     		tst	r1, r2
 391 001e 03D1     		bne	.L37
 392 0020 1A68     		ldr	r2, [r3]
 393 0022 22F00102 		bic	r2, r2, #1
 394 0026 1A60     		str	r2, [r3]
 395              	.L37:
 396 0028 2046     		mov	r0, r4
 397 002a FFF7FEFF 		bl	HAL_TIM_Base_MspDeInit
 398 002e 0020     		movs	r0, #0
 399 0030 84F84600 		strb	r0, [r4, #70]
 400 0034 84F83E00 		strb	r0, [r4, #62]
 401 0038 84F83F00 		strb	r0, [r4, #63]
 402 003c 84F84000 		strb	r0, [r4, #64]
 403 0040 84F84100 		strb	r0, [r4, #65]
 404 0044 84F84200 		strb	r0, [r4, #66]
 405 0048 84F84300 		strb	r0, [r4, #67]
 406 004c 84F84400 		strb	r0, [r4, #68]
 407 0050 84F84500 		strb	r0, [r4, #69]
 408 0054 84F83D00 		strb	r0, [r4, #61]
 409 0058 84F83C00 		strb	r0, [r4, #60]
 410 005c 10BD     		pop	{r4, pc}
 412              		.section	.text.HAL_TIM_Base_Start,"ax",%progbits
 413              		.align	1
 414              		.global	HAL_TIM_Base_Start
 415              		.syntax unified
 416              		.thumb
 417              		.thumb_func
 419              	HAL_TIM_Base_Start:
 420              		@ args = 0, pretend = 0, frame = 0
 421              		@ frame_needed = 0, uses_anonymous_args = 0
 422              		@ link register save eliminated.
 423 0000 90F83D30 		ldrb	r3, [r0, #61]	@ zero_extendqisi2
 424 0004 012B     		cmp	r3, #1
ARM GAS  C:\Users\PNGUBO~1\AppData\Local\Temp\ccYA2Pp6.s 			page 8


 425 0006 32D1     		bne	.L43
 426 0008 0223     		movs	r3, #2
 427 000a 80F83D30 		strb	r3, [r0, #61]
 428 000e 0368     		ldr	r3, [r0]
 429 0010 194A     		ldr	r2, .L45
 430 0012 9342     		cmp	r3, r2
 431 0014 20D0     		beq	.L41
 432 0016 B3F1804F 		cmp	r3, #1073741824
 433 001a 1DD0     		beq	.L41
 434 001c A2F57C42 		sub	r2, r2, #64512
 435 0020 9342     		cmp	r3, r2
 436 0022 19D0     		beq	.L41
 437 0024 02F58062 		add	r2, r2, #1024
 438 0028 9342     		cmp	r3, r2
 439 002a 15D0     		beq	.L41
 440 002c 02F58062 		add	r2, r2, #1024
 441 0030 9342     		cmp	r3, r2
 442 0032 11D0     		beq	.L41
 443 0034 02F57842 		add	r2, r2, #63488
 444 0038 9342     		cmp	r3, r2
 445 003a 0DD0     		beq	.L41
 446 003c 02F57052 		add	r2, r2, #15360
 447 0040 9342     		cmp	r3, r2
 448 0042 09D0     		beq	.L41
 449 0044 A2F59432 		sub	r2, r2, #75776
 450 0048 9342     		cmp	r3, r2
 451 004a 05D0     		beq	.L41
 452 004c 1A68     		ldr	r2, [r3]
 453 004e 42F00102 		orr	r2, r2, #1
 454 0052 1A60     		str	r2, [r3]
 455 0054 0020     		movs	r0, #0
 456 0056 7047     		bx	lr
 457              	.L41:
 458 0058 9A68     		ldr	r2, [r3, #8]
 459 005a 02F00702 		and	r2, r2, #7
 460 005e 062A     		cmp	r2, #6
 461 0060 07D0     		beq	.L44
 462 0062 1A68     		ldr	r2, [r3]
 463 0064 42F00102 		orr	r2, r2, #1
 464 0068 1A60     		str	r2, [r3]
 465 006a 0020     		movs	r0, #0
 466 006c 7047     		bx	lr
 467              	.L43:
 468 006e 0120     		movs	r0, #1
 469 0070 7047     		bx	lr
 470              	.L44:
 471 0072 0020     		movs	r0, #0
 472 0074 7047     		bx	lr
 473              	.L46:
 474 0076 00BF     		.align	2
 475              	.L45:
 476 0078 00000140 		.word	1073807360
 478              		.section	.text.HAL_TIM_Base_Stop,"ax",%progbits
 479              		.align	1
 480              		.global	HAL_TIM_Base_Stop
 481              		.syntax unified
 482              		.thumb
ARM GAS  C:\Users\PNGUBO~1\AppData\Local\Temp\ccYA2Pp6.s 			page 9


 483              		.thumb_func
 485              	HAL_TIM_Base_Stop:
 486              		@ args = 0, pretend = 0, frame = 0
 487              		@ frame_needed = 0, uses_anonymous_args = 0
 488              		@ link register save eliminated.
 489 0000 0368     		ldr	r3, [r0]
 490 0002 196A     		ldr	r1, [r3, #32]
 491 0004 41F21112 		movw	r2, #4369
 492 0008 1142     		tst	r1, r2
 493 000a 08D1     		bne	.L48
 494 000c 196A     		ldr	r1, [r3, #32]
 495 000e 40F24442 		movw	r2, #1092
 496 0012 1142     		tst	r1, r2
 497 0014 03D1     		bne	.L48
 498 0016 1A68     		ldr	r2, [r3]
 499 0018 22F00102 		bic	r2, r2, #1
 500 001c 1A60     		str	r2, [r3]
 501              	.L48:
 502 001e 0123     		movs	r3, #1
 503 0020 80F83D30 		strb	r3, [r0, #61]
 504 0024 0020     		movs	r0, #0
 505 0026 7047     		bx	lr
 507              		.section	.text.HAL_TIM_Base_Start_IT,"ax",%progbits
 508              		.align	1
 509              		.global	HAL_TIM_Base_Start_IT
 510              		.syntax unified
 511              		.thumb
 512              		.thumb_func
 514              	HAL_TIM_Base_Start_IT:
 515              		@ args = 0, pretend = 0, frame = 0
 516              		@ frame_needed = 0, uses_anonymous_args = 0
 517              		@ link register save eliminated.
 518 0000 90F83D30 		ldrb	r3, [r0, #61]	@ zero_extendqisi2
 519 0004 012B     		cmp	r3, #1
 520 0006 37D1     		bne	.L53
 521 0008 0223     		movs	r3, #2
 522 000a 80F83D30 		strb	r3, [r0, #61]
 523 000e 0268     		ldr	r2, [r0]
 524 0010 D368     		ldr	r3, [r2, #12]
 525 0012 43F00103 		orr	r3, r3, #1
 526 0016 D360     		str	r3, [r2, #12]
 527 0018 0368     		ldr	r3, [r0]
 528 001a 194A     		ldr	r2, .L55
 529 001c 9342     		cmp	r3, r2
 530 001e 20D0     		beq	.L51
 531 0020 B3F1804F 		cmp	r3, #1073741824
 532 0024 1DD0     		beq	.L51
 533 0026 A2F57C42 		sub	r2, r2, #64512
 534 002a 9342     		cmp	r3, r2
 535 002c 19D0     		beq	.L51
 536 002e 02F58062 		add	r2, r2, #1024
 537 0032 9342     		cmp	r3, r2
 538 0034 15D0     		beq	.L51
 539 0036 02F58062 		add	r2, r2, #1024
 540 003a 9342     		cmp	r3, r2
 541 003c 11D0     		beq	.L51
 542 003e 02F57842 		add	r2, r2, #63488
ARM GAS  C:\Users\PNGUBO~1\AppData\Local\Temp\ccYA2Pp6.s 			page 10


 543 0042 9342     		cmp	r3, r2
 544 0044 0DD0     		beq	.L51
 545 0046 02F57052 		add	r2, r2, #15360
 546 004a 9342     		cmp	r3, r2
 547 004c 09D0     		beq	.L51
 548 004e A2F59432 		sub	r2, r2, #75776
 549 0052 9342     		cmp	r3, r2
 550 0054 05D0     		beq	.L51
 551 0056 1A68     		ldr	r2, [r3]
 552 0058 42F00102 		orr	r2, r2, #1
 553 005c 1A60     		str	r2, [r3]
 554 005e 0020     		movs	r0, #0
 555 0060 7047     		bx	lr
 556              	.L51:
 557 0062 9A68     		ldr	r2, [r3, #8]
 558 0064 02F00702 		and	r2, r2, #7
 559 0068 062A     		cmp	r2, #6
 560 006a 07D0     		beq	.L54
 561 006c 1A68     		ldr	r2, [r3]
 562 006e 42F00102 		orr	r2, r2, #1
 563 0072 1A60     		str	r2, [r3]
 564 0074 0020     		movs	r0, #0
 565 0076 7047     		bx	lr
 566              	.L53:
 567 0078 0120     		movs	r0, #1
 568 007a 7047     		bx	lr
 569              	.L54:
 570 007c 0020     		movs	r0, #0
 571 007e 7047     		bx	lr
 572              	.L56:
 573              		.align	2
 574              	.L55:
 575 0080 00000140 		.word	1073807360
 577              		.section	.text.HAL_TIM_Base_Stop_IT,"ax",%progbits
 578              		.align	1
 579              		.global	HAL_TIM_Base_Stop_IT
 580              		.syntax unified
 581              		.thumb
 582              		.thumb_func
 584              	HAL_TIM_Base_Stop_IT:
 585              		@ args = 0, pretend = 0, frame = 0
 586              		@ frame_needed = 0, uses_anonymous_args = 0
 587              		@ link register save eliminated.
 588 0000 0268     		ldr	r2, [r0]
 589 0002 D368     		ldr	r3, [r2, #12]
 590 0004 23F00103 		bic	r3, r3, #1
 591 0008 D360     		str	r3, [r2, #12]
 592 000a 0368     		ldr	r3, [r0]
 593 000c 196A     		ldr	r1, [r3, #32]
 594 000e 41F21112 		movw	r2, #4369
 595 0012 1142     		tst	r1, r2
 596 0014 08D1     		bne	.L58
 597 0016 196A     		ldr	r1, [r3, #32]
 598 0018 40F24442 		movw	r2, #1092
 599 001c 1142     		tst	r1, r2
 600 001e 03D1     		bne	.L58
 601 0020 1A68     		ldr	r2, [r3]
ARM GAS  C:\Users\PNGUBO~1\AppData\Local\Temp\ccYA2Pp6.s 			page 11


 602 0022 22F00102 		bic	r2, r2, #1
 603 0026 1A60     		str	r2, [r3]
 604              	.L58:
 605 0028 0123     		movs	r3, #1
 606 002a 80F83D30 		strb	r3, [r0, #61]
 607 002e 0020     		movs	r0, #0
 608 0030 7047     		bx	lr
 610              		.section	.text.HAL_TIM_Base_Start_DMA,"ax",%progbits
 611              		.align	1
 612              		.global	HAL_TIM_Base_Start_DMA
 613              		.syntax unified
 614              		.thumb
 615              		.thumb_func
 617              	HAL_TIM_Base_Start_DMA:
 618              		@ args = 0, pretend = 0, frame = 0
 619              		@ frame_needed = 0, uses_anonymous_args = 0
 620 0000 38B5     		push	{r3, r4, r5, lr}
 621 0002 90F83D30 		ldrb	r3, [r0, #61]	@ zero_extendqisi2
 622 0006 DDB2     		uxtb	r5, r3
 623 0008 022B     		cmp	r3, #2
 624 000a 54D0     		beq	.L60
 625 000c 0446     		mov	r4, r0
 626 000e 90F83D30 		ldrb	r3, [r0, #61]	@ zero_extendqisi2
 627 0012 DDB2     		uxtb	r5, r3
 628 0014 012B     		cmp	r3, #1
 629 0016 4DD1     		bne	.L63
 630 0018 0029     		cmp	r1, #0
 631 001a 4CD0     		beq	.L60
 632 001c 002A     		cmp	r2, #0
 633 001e 4AD0     		beq	.L60
 634 0020 0223     		movs	r3, #2
 635 0022 80F83D30 		strb	r3, [r0, #61]
 636 0026 036A     		ldr	r3, [r0, #32]
 637 0028 2548     		ldr	r0, .L66
 638 002a D863     		str	r0, [r3, #60]
 639 002c 236A     		ldr	r3, [r4, #32]
 640 002e 2548     		ldr	r0, .L66+4
 641 0030 1864     		str	r0, [r3, #64]
 642 0032 236A     		ldr	r3, [r4, #32]
 643 0034 2448     		ldr	r0, .L66+8
 644 0036 D864     		str	r0, [r3, #76]
 645 0038 2068     		ldr	r0, [r4]
 646 003a 1346     		mov	r3, r2
 647 003c 00F12C02 		add	r2, r0, #44
 648 0040 206A     		ldr	r0, [r4, #32]
 649 0042 FFF7FEFF 		bl	HAL_DMA_Start_IT
 650 0046 0146     		mov	r1, r0
 651 0048 A8BB     		cbnz	r0, .L60
 652 004a 2268     		ldr	r2, [r4]
 653 004c D368     		ldr	r3, [r2, #12]
 654 004e 43F48073 		orr	r3, r3, #256
 655 0052 D360     		str	r3, [r2, #12]
 656 0054 2368     		ldr	r3, [r4]
 657 0056 1D4A     		ldr	r2, .L66+12
 658 0058 9342     		cmp	r3, r2
 659 005a 20D0     		beq	.L61
 660 005c B3F1804F 		cmp	r3, #1073741824
ARM GAS  C:\Users\PNGUBO~1\AppData\Local\Temp\ccYA2Pp6.s 			page 12


 661 0060 1DD0     		beq	.L61
 662 0062 A2F57C42 		sub	r2, r2, #64512
 663 0066 9342     		cmp	r3, r2
 664 0068 19D0     		beq	.L61
 665 006a 02F58062 		add	r2, r2, #1024
 666 006e 9342     		cmp	r3, r2
 667 0070 15D0     		beq	.L61
 668 0072 02F58062 		add	r2, r2, #1024
 669 0076 9342     		cmp	r3, r2
 670 0078 11D0     		beq	.L61
 671 007a 02F57842 		add	r2, r2, #63488
 672 007e 9342     		cmp	r3, r2
 673 0080 0DD0     		beq	.L61
 674 0082 02F57052 		add	r2, r2, #15360
 675 0086 9342     		cmp	r3, r2
 676 0088 09D0     		beq	.L61
 677 008a A2F59432 		sub	r2, r2, #75776
 678 008e 9342     		cmp	r3, r2
 679 0090 05D0     		beq	.L61
 680 0092 1A68     		ldr	r2, [r3]
 681 0094 42F00102 		orr	r2, r2, #1
 682 0098 1A60     		str	r2, [r3]
 683 009a 0546     		mov	r5, r0
 684 009c 0BE0     		b	.L60
 685              	.L61:
 686 009e 9A68     		ldr	r2, [r3, #8]
 687 00a0 02F00702 		and	r2, r2, #7
 688 00a4 062A     		cmp	r2, #6
 689 00a6 08D0     		beq	.L64
 690 00a8 1A68     		ldr	r2, [r3]
 691 00aa 42F00102 		orr	r2, r2, #1
 692 00ae 1A60     		str	r2, [r3]
 693 00b0 0D46     		mov	r5, r1
 694 00b2 00E0     		b	.L60
 695              	.L63:
 696 00b4 0125     		movs	r5, #1
 697              	.L60:
 698 00b6 2846     		mov	r0, r5
 699 00b8 38BD     		pop	{r3, r4, r5, pc}
 700              	.L64:
 701 00ba 0D46     		mov	r5, r1
 702 00bc FBE7     		b	.L60
 703              	.L67:
 704 00be 00BF     		.align	2
 705              	.L66:
 706 00c0 00000000 		.word	TIM_DMAPeriodElapsedCplt
 707 00c4 00000000 		.word	TIM_DMAPeriodElapsedHalfCplt
 708 00c8 00000000 		.word	TIM_DMAError
 709 00cc 00000140 		.word	1073807360
 711              		.section	.text.HAL_TIM_Base_Stop_DMA,"ax",%progbits
 712              		.align	1
 713              		.global	HAL_TIM_Base_Stop_DMA
 714              		.syntax unified
 715              		.thumb
 716              		.thumb_func
 718              	HAL_TIM_Base_Stop_DMA:
 719              		@ args = 0, pretend = 0, frame = 0
ARM GAS  C:\Users\PNGUBO~1\AppData\Local\Temp\ccYA2Pp6.s 			page 13


 720              		@ frame_needed = 0, uses_anonymous_args = 0
 721 0000 10B5     		push	{r4, lr}
 722 0002 0446     		mov	r4, r0
 723 0004 0268     		ldr	r2, [r0]
 724 0006 D368     		ldr	r3, [r2, #12]
 725 0008 23F48073 		bic	r3, r3, #256
 726 000c D360     		str	r3, [r2, #12]
 727 000e 006A     		ldr	r0, [r0, #32]
 728 0010 FFF7FEFF 		bl	HAL_DMA_Abort_IT
 729 0014 2368     		ldr	r3, [r4]
 730 0016 196A     		ldr	r1, [r3, #32]
 731 0018 41F21112 		movw	r2, #4369
 732 001c 1142     		tst	r1, r2
 733 001e 08D1     		bne	.L69
 734 0020 196A     		ldr	r1, [r3, #32]
 735 0022 40F24442 		movw	r2, #1092
 736 0026 1142     		tst	r1, r2
 737 0028 03D1     		bne	.L69
 738 002a 1A68     		ldr	r2, [r3]
 739 002c 22F00102 		bic	r2, r2, #1
 740 0030 1A60     		str	r2, [r3]
 741              	.L69:
 742 0032 0123     		movs	r3, #1
 743 0034 84F83D30 		strb	r3, [r4, #61]
 744 0038 0020     		movs	r0, #0
 745 003a 10BD     		pop	{r4, pc}
 747              		.section	.text.HAL_TIM_OC_MspInit,"ax",%progbits
 748              		.align	1
 749              		.weak	HAL_TIM_OC_MspInit
 750              		.syntax unified
 751              		.thumb
 752              		.thumb_func
 754              	HAL_TIM_OC_MspInit:
 755              		@ args = 0, pretend = 0, frame = 0
 756              		@ frame_needed = 0, uses_anonymous_args = 0
 757              		@ link register save eliminated.
 758 0000 7047     		bx	lr
 760              		.section	.text.HAL_TIM_OC_MspDeInit,"ax",%progbits
 761              		.align	1
 762              		.weak	HAL_TIM_OC_MspDeInit
 763              		.syntax unified
 764              		.thumb
 765              		.thumb_func
 767              	HAL_TIM_OC_MspDeInit:
 768              		@ args = 0, pretend = 0, frame = 0
 769              		@ frame_needed = 0, uses_anonymous_args = 0
 770              		@ link register save eliminated.
 771 0000 7047     		bx	lr
 773              		.section	.text.HAL_TIM_OC_DeInit,"ax",%progbits
 774              		.align	1
 775              		.global	HAL_TIM_OC_DeInit
 776              		.syntax unified
 777              		.thumb
 778              		.thumb_func
 780              	HAL_TIM_OC_DeInit:
 781              		@ args = 0, pretend = 0, frame = 0
 782              		@ frame_needed = 0, uses_anonymous_args = 0
ARM GAS  C:\Users\PNGUBO~1\AppData\Local\Temp\ccYA2Pp6.s 			page 14


 783 0000 10B5     		push	{r4, lr}
 784 0002 0446     		mov	r4, r0
 785 0004 0223     		movs	r3, #2
 786 0006 80F83D30 		strb	r3, [r0, #61]
 787 000a 0368     		ldr	r3, [r0]
 788 000c 196A     		ldr	r1, [r3, #32]
 789 000e 41F21112 		movw	r2, #4369
 790 0012 1142     		tst	r1, r2
 791 0014 08D1     		bne	.L74
 792 0016 196A     		ldr	r1, [r3, #32]
 793 0018 40F24442 		movw	r2, #1092
 794 001c 1142     		tst	r1, r2
 795 001e 03D1     		bne	.L74
 796 0020 1A68     		ldr	r2, [r3]
 797 0022 22F00102 		bic	r2, r2, #1
 798 0026 1A60     		str	r2, [r3]
 799              	.L74:
 800 0028 2046     		mov	r0, r4
 801 002a FFF7FEFF 		bl	HAL_TIM_OC_MspDeInit
 802 002e 0020     		movs	r0, #0
 803 0030 84F84600 		strb	r0, [r4, #70]
 804 0034 84F83E00 		strb	r0, [r4, #62]
 805 0038 84F83F00 		strb	r0, [r4, #63]
 806 003c 84F84000 		strb	r0, [r4, #64]
 807 0040 84F84100 		strb	r0, [r4, #65]
 808 0044 84F84200 		strb	r0, [r4, #66]
 809 0048 84F84300 		strb	r0, [r4, #67]
 810 004c 84F84400 		strb	r0, [r4, #68]
 811 0050 84F84500 		strb	r0, [r4, #69]
 812 0054 84F83D00 		strb	r0, [r4, #61]
 813 0058 84F83C00 		strb	r0, [r4, #60]
 814 005c 10BD     		pop	{r4, pc}
 816              		.section	.text.HAL_TIM_PWM_MspInit,"ax",%progbits
 817              		.align	1
 818              		.weak	HAL_TIM_PWM_MspInit
 819              		.syntax unified
 820              		.thumb
 821              		.thumb_func
 823              	HAL_TIM_PWM_MspInit:
 824              		@ args = 0, pretend = 0, frame = 0
 825              		@ frame_needed = 0, uses_anonymous_args = 0
 826              		@ link register save eliminated.
 827 0000 7047     		bx	lr
 829              		.section	.text.HAL_TIM_PWM_MspDeInit,"ax",%progbits
 830              		.align	1
 831              		.weak	HAL_TIM_PWM_MspDeInit
 832              		.syntax unified
 833              		.thumb
 834              		.thumb_func
 836              	HAL_TIM_PWM_MspDeInit:
 837              		@ args = 0, pretend = 0, frame = 0
 838              		@ frame_needed = 0, uses_anonymous_args = 0
 839              		@ link register save eliminated.
 840 0000 7047     		bx	lr
 842              		.section	.text.HAL_TIM_PWM_DeInit,"ax",%progbits
 843              		.align	1
 844              		.global	HAL_TIM_PWM_DeInit
ARM GAS  C:\Users\PNGUBO~1\AppData\Local\Temp\ccYA2Pp6.s 			page 15


 845              		.syntax unified
 846              		.thumb
 847              		.thumb_func
 849              	HAL_TIM_PWM_DeInit:
 850              		@ args = 0, pretend = 0, frame = 0
 851              		@ frame_needed = 0, uses_anonymous_args = 0
 852 0000 10B5     		push	{r4, lr}
 853 0002 0446     		mov	r4, r0
 854 0004 0223     		movs	r3, #2
 855 0006 80F83D30 		strb	r3, [r0, #61]
 856 000a 0368     		ldr	r3, [r0]
 857 000c 196A     		ldr	r1, [r3, #32]
 858 000e 41F21112 		movw	r2, #4369
 859 0012 1142     		tst	r1, r2
 860 0014 08D1     		bne	.L79
 861 0016 196A     		ldr	r1, [r3, #32]
 862 0018 40F24442 		movw	r2, #1092
 863 001c 1142     		tst	r1, r2
 864 001e 03D1     		bne	.L79
 865 0020 1A68     		ldr	r2, [r3]
 866 0022 22F00102 		bic	r2, r2, #1
 867 0026 1A60     		str	r2, [r3]
 868              	.L79:
 869 0028 2046     		mov	r0, r4
 870 002a FFF7FEFF 		bl	HAL_TIM_PWM_MspDeInit
 871 002e 0020     		movs	r0, #0
 872 0030 84F84600 		strb	r0, [r4, #70]
 873 0034 84F83E00 		strb	r0, [r4, #62]
 874 0038 84F83F00 		strb	r0, [r4, #63]
 875 003c 84F84000 		strb	r0, [r4, #64]
 876 0040 84F84100 		strb	r0, [r4, #65]
 877 0044 84F84200 		strb	r0, [r4, #66]
 878 0048 84F84300 		strb	r0, [r4, #67]
 879 004c 84F84400 		strb	r0, [r4, #68]
 880 0050 84F84500 		strb	r0, [r4, #69]
 881 0054 84F83D00 		strb	r0, [r4, #61]
 882 0058 84F83C00 		strb	r0, [r4, #60]
 883 005c 10BD     		pop	{r4, pc}
 885              		.section	.text.HAL_TIM_IC_MspInit,"ax",%progbits
 886              		.align	1
 887              		.weak	HAL_TIM_IC_MspInit
 888              		.syntax unified
 889              		.thumb
 890              		.thumb_func
 892              	HAL_TIM_IC_MspInit:
 893              		@ args = 0, pretend = 0, frame = 0
 894              		@ frame_needed = 0, uses_anonymous_args = 0
 895              		@ link register save eliminated.
 896 0000 7047     		bx	lr
 898              		.section	.text.HAL_TIM_IC_MspDeInit,"ax",%progbits
 899              		.align	1
 900              		.weak	HAL_TIM_IC_MspDeInit
 901              		.syntax unified
 902              		.thumb
 903              		.thumb_func
 905              	HAL_TIM_IC_MspDeInit:
 906              		@ args = 0, pretend = 0, frame = 0
ARM GAS  C:\Users\PNGUBO~1\AppData\Local\Temp\ccYA2Pp6.s 			page 16


 907              		@ frame_needed = 0, uses_anonymous_args = 0
 908              		@ link register save eliminated.
 909 0000 7047     		bx	lr
 911              		.section	.text.HAL_TIM_IC_DeInit,"ax",%progbits
 912              		.align	1
 913              		.global	HAL_TIM_IC_DeInit
 914              		.syntax unified
 915              		.thumb
 916              		.thumb_func
 918              	HAL_TIM_IC_DeInit:
 919              		@ args = 0, pretend = 0, frame = 0
 920              		@ frame_needed = 0, uses_anonymous_args = 0
 921 0000 10B5     		push	{r4, lr}
 922 0002 0446     		mov	r4, r0
 923 0004 0223     		movs	r3, #2
 924 0006 80F83D30 		strb	r3, [r0, #61]
 925 000a 0368     		ldr	r3, [r0]
 926 000c 196A     		ldr	r1, [r3, #32]
 927 000e 41F21112 		movw	r2, #4369
 928 0012 1142     		tst	r1, r2
 929 0014 08D1     		bne	.L84
 930 0016 196A     		ldr	r1, [r3, #32]
 931 0018 40F24442 		movw	r2, #1092
 932 001c 1142     		tst	r1, r2
 933 001e 03D1     		bne	.L84
 934 0020 1A68     		ldr	r2, [r3]
 935 0022 22F00102 		bic	r2, r2, #1
 936 0026 1A60     		str	r2, [r3]
 937              	.L84:
 938 0028 2046     		mov	r0, r4
 939 002a FFF7FEFF 		bl	HAL_TIM_IC_MspDeInit
 940 002e 0020     		movs	r0, #0
 941 0030 84F84600 		strb	r0, [r4, #70]
 942 0034 84F83E00 		strb	r0, [r4, #62]
 943 0038 84F83F00 		strb	r0, [r4, #63]
 944 003c 84F84000 		strb	r0, [r4, #64]
 945 0040 84F84100 		strb	r0, [r4, #65]
 946 0044 84F84200 		strb	r0, [r4, #66]
 947 0048 84F84300 		strb	r0, [r4, #67]
 948 004c 84F84400 		strb	r0, [r4, #68]
 949 0050 84F84500 		strb	r0, [r4, #69]
 950 0054 84F83D00 		strb	r0, [r4, #61]
 951 0058 84F83C00 		strb	r0, [r4, #60]
 952 005c 10BD     		pop	{r4, pc}
 954              		.section	.text.HAL_TIM_OnePulse_MspInit,"ax",%progbits
 955              		.align	1
 956              		.weak	HAL_TIM_OnePulse_MspInit
 957              		.syntax unified
 958              		.thumb
 959              		.thumb_func
 961              	HAL_TIM_OnePulse_MspInit:
 962              		@ args = 0, pretend = 0, frame = 0
 963              		@ frame_needed = 0, uses_anonymous_args = 0
 964              		@ link register save eliminated.
 965 0000 7047     		bx	lr
 967              		.section	.text.HAL_TIM_OnePulse_MspDeInit,"ax",%progbits
 968              		.align	1
ARM GAS  C:\Users\PNGUBO~1\AppData\Local\Temp\ccYA2Pp6.s 			page 17


 969              		.weak	HAL_TIM_OnePulse_MspDeInit
 970              		.syntax unified
 971              		.thumb
 972              		.thumb_func
 974              	HAL_TIM_OnePulse_MspDeInit:
 975              		@ args = 0, pretend = 0, frame = 0
 976              		@ frame_needed = 0, uses_anonymous_args = 0
 977              		@ link register save eliminated.
 978 0000 7047     		bx	lr
 980              		.section	.text.HAL_TIM_OnePulse_DeInit,"ax",%progbits
 981              		.align	1
 982              		.global	HAL_TIM_OnePulse_DeInit
 983              		.syntax unified
 984              		.thumb
 985              		.thumb_func
 987              	HAL_TIM_OnePulse_DeInit:
 988              		@ args = 0, pretend = 0, frame = 0
 989              		@ frame_needed = 0, uses_anonymous_args = 0
 990 0000 10B5     		push	{r4, lr}
 991 0002 0446     		mov	r4, r0
 992 0004 0223     		movs	r3, #2
 993 0006 80F83D30 		strb	r3, [r0, #61]
 994 000a 0368     		ldr	r3, [r0]
 995 000c 196A     		ldr	r1, [r3, #32]
 996 000e 41F21112 		movw	r2, #4369
 997 0012 1142     		tst	r1, r2
 998 0014 08D1     		bne	.L89
 999 0016 196A     		ldr	r1, [r3, #32]
 1000 0018 40F24442 		movw	r2, #1092
 1001 001c 1142     		tst	r1, r2
 1002 001e 03D1     		bne	.L89
 1003 0020 1A68     		ldr	r2, [r3]
 1004 0022 22F00102 		bic	r2, r2, #1
 1005 0026 1A60     		str	r2, [r3]
 1006              	.L89:
 1007 0028 2046     		mov	r0, r4
 1008 002a FFF7FEFF 		bl	HAL_TIM_OnePulse_MspDeInit
 1009 002e 0020     		movs	r0, #0
 1010 0030 84F84600 		strb	r0, [r4, #70]
 1011 0034 84F83E00 		strb	r0, [r4, #62]
 1012 0038 84F83F00 		strb	r0, [r4, #63]
 1013 003c 84F84200 		strb	r0, [r4, #66]
 1014 0040 84F84300 		strb	r0, [r4, #67]
 1015 0044 84F83D00 		strb	r0, [r4, #61]
 1016 0048 84F83C00 		strb	r0, [r4, #60]
 1017 004c 10BD     		pop	{r4, pc}
 1019              		.section	.text.HAL_TIM_Encoder_MspInit,"ax",%progbits
 1020              		.align	1
 1021              		.weak	HAL_TIM_Encoder_MspInit
 1022              		.syntax unified
 1023              		.thumb
 1024              		.thumb_func
 1026              	HAL_TIM_Encoder_MspInit:
 1027              		@ args = 0, pretend = 0, frame = 0
 1028              		@ frame_needed = 0, uses_anonymous_args = 0
 1029              		@ link register save eliminated.
 1030 0000 7047     		bx	lr
ARM GAS  C:\Users\PNGUBO~1\AppData\Local\Temp\ccYA2Pp6.s 			page 18


 1032              		.section	.text.HAL_TIM_Encoder_MspDeInit,"ax",%progbits
 1033              		.align	1
 1034              		.weak	HAL_TIM_Encoder_MspDeInit
 1035              		.syntax unified
 1036              		.thumb
 1037              		.thumb_func
 1039              	HAL_TIM_Encoder_MspDeInit:
 1040              		@ args = 0, pretend = 0, frame = 0
 1041              		@ frame_needed = 0, uses_anonymous_args = 0
 1042              		@ link register save eliminated.
 1043 0000 7047     		bx	lr
 1045              		.section	.text.HAL_TIM_Encoder_DeInit,"ax",%progbits
 1046              		.align	1
 1047              		.global	HAL_TIM_Encoder_DeInit
 1048              		.syntax unified
 1049              		.thumb
 1050              		.thumb_func
 1052              	HAL_TIM_Encoder_DeInit:
 1053              		@ args = 0, pretend = 0, frame = 0
 1054              		@ frame_needed = 0, uses_anonymous_args = 0
 1055 0000 10B5     		push	{r4, lr}
 1056 0002 0446     		mov	r4, r0
 1057 0004 0223     		movs	r3, #2
 1058 0006 80F83D30 		strb	r3, [r0, #61]
 1059 000a 0368     		ldr	r3, [r0]
 1060 000c 196A     		ldr	r1, [r3, #32]
 1061 000e 41F21112 		movw	r2, #4369
 1062 0012 1142     		tst	r1, r2
 1063 0014 08D1     		bne	.L94
 1064 0016 196A     		ldr	r1, [r3, #32]
 1065 0018 40F24442 		movw	r2, #1092
 1066 001c 1142     		tst	r1, r2
 1067 001e 03D1     		bne	.L94
 1068 0020 1A68     		ldr	r2, [r3]
 1069 0022 22F00102 		bic	r2, r2, #1
 1070 0026 1A60     		str	r2, [r3]
 1071              	.L94:
 1072 0028 2046     		mov	r0, r4
 1073 002a FFF7FEFF 		bl	HAL_TIM_Encoder_MspDeInit
 1074 002e 0020     		movs	r0, #0
 1075 0030 84F84600 		strb	r0, [r4, #70]
 1076 0034 84F83E00 		strb	r0, [r4, #62]
 1077 0038 84F83F00 		strb	r0, [r4, #63]
 1078 003c 84F84200 		strb	r0, [r4, #66]
 1079 0040 84F84300 		strb	r0, [r4, #67]
 1080 0044 84F83D00 		strb	r0, [r4, #61]
 1081 0048 84F83C00 		strb	r0, [r4, #60]
 1082 004c 10BD     		pop	{r4, pc}
 1084              		.section	.text.HAL_TIM_DMABurst_MultiWriteStart,"ax",%progbits
 1085              		.align	1
 1086              		.global	HAL_TIM_DMABurst_MultiWriteStart
 1087              		.syntax unified
 1088              		.thumb
 1089              		.thumb_func
 1091              	HAL_TIM_DMABurst_MultiWriteStart:
 1092              		@ args = 8, pretend = 0, frame = 0
 1093              		@ frame_needed = 0, uses_anonymous_args = 0
ARM GAS  C:\Users\PNGUBO~1\AppData\Local\Temp\ccYA2Pp6.s 			page 19


 1094 0000 70B5     		push	{r4, r5, r6, lr}
 1095 0002 0446     		mov	r4, r0
 1096 0004 0E46     		mov	r6, r1
 1097 0006 1946     		mov	r1, r3
 1098 0008 90F84630 		ldrb	r3, [r0, #70]	@ zero_extendqisi2
 1099 000c D8B2     		uxtb	r0, r3
 1100 000e 022B     		cmp	r3, #2
 1101 0010 2DD0     		beq	.L97
 1102 0012 1546     		mov	r5, r2
 1103 0014 94F84630 		ldrb	r3, [r4, #70]	@ zero_extendqisi2
 1104 0018 D8B2     		uxtb	r0, r3
 1105 001a 012B     		cmp	r3, #1
 1106 001c 28D0     		beq	.L117
 1107              	.L98:
 1108 001e B5F5006F 		cmp	r5, #2048
 1109 0022 74D0     		beq	.L100
 1110 0024 2FD8     		bhi	.L101
 1111 0026 B5F5007F 		cmp	r5, #512
 1112 002a 4AD0     		beq	.L102
 1113 002c B5F5806F 		cmp	r5, #1024
 1114 0030 5AD0     		beq	.L103
 1115 0032 B5F5807F 		cmp	r5, #256
 1116 0036 24D1     		bne	.L118
 1117 0038 236A     		ldr	r3, [r4, #32]
 1118 003a 534A     		ldr	r2, .L122
 1119 003c DA63     		str	r2, [r3, #60]
 1120 003e 236A     		ldr	r3, [r4, #32]
 1121 0040 524A     		ldr	r2, .L122+4
 1122 0042 1A64     		str	r2, [r3, #64]
 1123 0044 236A     		ldr	r3, [r4, #32]
 1124 0046 524A     		ldr	r2, .L122+8
 1125 0048 DA64     		str	r2, [r3, #76]
 1126 004a 2268     		ldr	r2, [r4]
 1127 004c 059B     		ldr	r3, [sp, #20]
 1128 004e 4C32     		adds	r2, r2, #76
 1129 0050 206A     		ldr	r0, [r4, #32]
 1130 0052 FFF7FEFF 		bl	HAL_DMA_Start_IT
 1131 0056 0028     		cmp	r0, #0
 1132 0058 40F09380 		bne	.L119
 1133              	.L108:
 1134 005c 2368     		ldr	r3, [r4]
 1135 005e 049A     		ldr	r2, [sp, #16]
 1136 0060 1643     		orrs	r6, r6, r2
 1137 0062 9E64     		str	r6, [r3, #72]
 1138 0064 2268     		ldr	r2, [r4]
 1139 0066 D368     		ldr	r3, [r2, #12]
 1140 0068 2B43     		orrs	r3, r3, r5
 1141 006a D360     		str	r3, [r2, #12]
 1142 006c 0020     		movs	r0, #0
 1143              	.L97:
 1144 006e 70BD     		pop	{r4, r5, r6, pc}
 1145              	.L117:
 1146 0070 19B1     		cbz	r1, .L120
 1147              	.L99:
 1148 0072 0223     		movs	r3, #2
 1149 0074 84F84630 		strb	r3, [r4, #70]
 1150 0078 D1E7     		b	.L98
ARM GAS  C:\Users\PNGUBO~1\AppData\Local\Temp\ccYA2Pp6.s 			page 20


 1151              	.L120:
 1152 007a 049B     		ldr	r3, [sp, #16]
 1153 007c 002B     		cmp	r3, #0
 1154 007e F8D0     		beq	.L99
 1155 0080 F5E7     		b	.L97
 1156              	.L118:
 1157 0082 0120     		movs	r0, #1
 1158 0084 F3E7     		b	.L97
 1159              	.L101:
 1160 0086 B5F5005F 		cmp	r5, #8192
 1161 008a 53D0     		beq	.L105
 1162 008c B5F5804F 		cmp	r5, #16384
 1163 0090 63D0     		beq	.L106
 1164 0092 B5F5805F 		cmp	r5, #4096
 1165 0096 12D1     		bne	.L121
 1166 0098 236B     		ldr	r3, [r4, #48]
 1167 009a 3E4A     		ldr	r2, .L122+12
 1168 009c DA63     		str	r2, [r3, #60]
 1169 009e 236B     		ldr	r3, [r4, #48]
 1170 00a0 3D4A     		ldr	r2, .L122+16
 1171 00a2 1A64     		str	r2, [r3, #64]
 1172 00a4 236B     		ldr	r3, [r4, #48]
 1173 00a6 3A4A     		ldr	r2, .L122+8
 1174 00a8 DA64     		str	r2, [r3, #76]
 1175 00aa 2268     		ldr	r2, [r4]
 1176 00ac 059B     		ldr	r3, [sp, #20]
 1177 00ae 4C32     		adds	r2, r2, #76
 1178 00b0 206B     		ldr	r0, [r4, #48]
 1179 00b2 FFF7FEFF 		bl	HAL_DMA_Start_IT
 1180 00b6 0028     		cmp	r0, #0
 1181 00b8 D0D0     		beq	.L108
 1182 00ba 0120     		movs	r0, #1
 1183 00bc D7E7     		b	.L97
 1184              	.L121:
 1185 00be 0120     		movs	r0, #1
 1186 00c0 D5E7     		b	.L97
 1187              	.L102:
 1188 00c2 636A     		ldr	r3, [r4, #36]
 1189 00c4 334A     		ldr	r2, .L122+12
 1190 00c6 DA63     		str	r2, [r3, #60]
 1191 00c8 636A     		ldr	r3, [r4, #36]
 1192 00ca 334A     		ldr	r2, .L122+16
 1193 00cc 1A64     		str	r2, [r3, #64]
 1194 00ce 636A     		ldr	r3, [r4, #36]
 1195 00d0 2F4A     		ldr	r2, .L122+8
 1196 00d2 DA64     		str	r2, [r3, #76]
 1197 00d4 2268     		ldr	r2, [r4]
 1198 00d6 059B     		ldr	r3, [sp, #20]
 1199 00d8 4C32     		adds	r2, r2, #76
 1200 00da 606A     		ldr	r0, [r4, #36]
 1201 00dc FFF7FEFF 		bl	HAL_DMA_Start_IT
 1202 00e0 0028     		cmp	r0, #0
 1203 00e2 BBD0     		beq	.L108
 1204 00e4 0120     		movs	r0, #1
 1205 00e6 C2E7     		b	.L97
 1206              	.L103:
 1207 00e8 A36A     		ldr	r3, [r4, #40]
ARM GAS  C:\Users\PNGUBO~1\AppData\Local\Temp\ccYA2Pp6.s 			page 21


 1208 00ea 2A4A     		ldr	r2, .L122+12
 1209 00ec DA63     		str	r2, [r3, #60]
 1210 00ee A36A     		ldr	r3, [r4, #40]
 1211 00f0 294A     		ldr	r2, .L122+16
 1212 00f2 1A64     		str	r2, [r3, #64]
 1213 00f4 A36A     		ldr	r3, [r4, #40]
 1214 00f6 264A     		ldr	r2, .L122+8
 1215 00f8 DA64     		str	r2, [r3, #76]
 1216 00fa 2268     		ldr	r2, [r4]
 1217 00fc 059B     		ldr	r3, [sp, #20]
 1218 00fe 4C32     		adds	r2, r2, #76
 1219 0100 A06A     		ldr	r0, [r4, #40]
 1220 0102 FFF7FEFF 		bl	HAL_DMA_Start_IT
 1221 0106 0028     		cmp	r0, #0
 1222 0108 A8D0     		beq	.L108
 1223 010a 0120     		movs	r0, #1
 1224 010c AFE7     		b	.L97
 1225              	.L100:
 1226 010e E36A     		ldr	r3, [r4, #44]
 1227 0110 204A     		ldr	r2, .L122+12
 1228 0112 DA63     		str	r2, [r3, #60]
 1229 0114 E36A     		ldr	r3, [r4, #44]
 1230 0116 204A     		ldr	r2, .L122+16
 1231 0118 1A64     		str	r2, [r3, #64]
 1232 011a E36A     		ldr	r3, [r4, #44]
 1233 011c 1C4A     		ldr	r2, .L122+8
 1234 011e DA64     		str	r2, [r3, #76]
 1235 0120 2268     		ldr	r2, [r4]
 1236 0122 059B     		ldr	r3, [sp, #20]
 1237 0124 4C32     		adds	r2, r2, #76
 1238 0126 E06A     		ldr	r0, [r4, #44]
 1239 0128 FFF7FEFF 		bl	HAL_DMA_Start_IT
 1240 012c 0028     		cmp	r0, #0
 1241 012e 95D0     		beq	.L108
 1242 0130 0120     		movs	r0, #1
 1243 0132 9CE7     		b	.L97
 1244              	.L105:
 1245 0134 636B     		ldr	r3, [r4, #52]
 1246 0136 194A     		ldr	r2, .L122+20
 1247 0138 DA63     		str	r2, [r3, #60]
 1248 013a 636B     		ldr	r3, [r4, #52]
 1249 013c 184A     		ldr	r2, .L122+24
 1250 013e 1A64     		str	r2, [r3, #64]
 1251 0140 636B     		ldr	r3, [r4, #52]
 1252 0142 134A     		ldr	r2, .L122+8
 1253 0144 DA64     		str	r2, [r3, #76]
 1254 0146 2268     		ldr	r2, [r4]
 1255 0148 059B     		ldr	r3, [sp, #20]
 1256 014a 4C32     		adds	r2, r2, #76
 1257 014c 606B     		ldr	r0, [r4, #52]
 1258 014e FFF7FEFF 		bl	HAL_DMA_Start_IT
 1259 0152 0028     		cmp	r0, #0
 1260 0154 82D0     		beq	.L108
 1261 0156 0120     		movs	r0, #1
 1262 0158 89E7     		b	.L97
 1263              	.L106:
 1264 015a A36B     		ldr	r3, [r4, #56]
ARM GAS  C:\Users\PNGUBO~1\AppData\Local\Temp\ccYA2Pp6.s 			page 22


 1265 015c 114A     		ldr	r2, .L122+28
 1266 015e DA63     		str	r2, [r3, #60]
 1267 0160 A36B     		ldr	r3, [r4, #56]
 1268 0162 114A     		ldr	r2, .L122+32
 1269 0164 1A64     		str	r2, [r3, #64]
 1270 0166 A36B     		ldr	r3, [r4, #56]
 1271 0168 094A     		ldr	r2, .L122+8
 1272 016a DA64     		str	r2, [r3, #76]
 1273 016c 2268     		ldr	r2, [r4]
 1274 016e 059B     		ldr	r3, [sp, #20]
 1275 0170 4C32     		adds	r2, r2, #76
 1276 0172 A06B     		ldr	r0, [r4, #56]
 1277 0174 FFF7FEFF 		bl	HAL_DMA_Start_IT
 1278 0178 0028     		cmp	r0, #0
 1279 017a 3FF46FAF 		beq	.L108
 1280 017e 0120     		movs	r0, #1
 1281 0180 75E7     		b	.L97
 1282              	.L119:
 1283 0182 0120     		movs	r0, #1
 1284 0184 73E7     		b	.L97
 1285              	.L123:
 1286 0186 00BF     		.align	2
 1287              	.L122:
 1288 0188 00000000 		.word	TIM_DMAPeriodElapsedCplt
 1289 018c 00000000 		.word	TIM_DMAPeriodElapsedHalfCplt
 1290 0190 00000000 		.word	TIM_DMAError
 1291 0194 00000000 		.word	TIM_DMADelayPulseCplt
 1292 0198 00000000 		.word	TIM_DMADelayPulseHalfCplt
 1293 019c 00000000 		.word	TIMEx_DMACommutationCplt
 1294 01a0 00000000 		.word	TIMEx_DMACommutationHalfCplt
 1295 01a4 00000000 		.word	TIM_DMATriggerCplt
 1296 01a8 00000000 		.word	TIM_DMATriggerHalfCplt
 1298              		.section	.text.HAL_TIM_DMABurst_WriteStart,"ax",%progbits
 1299              		.align	1
 1300              		.global	HAL_TIM_DMABurst_WriteStart
 1301              		.syntax unified
 1302              		.thumb
 1303              		.thumb_func
 1305              	HAL_TIM_DMABurst_WriteStart:
 1306              		@ args = 4, pretend = 0, frame = 0
 1307              		@ frame_needed = 0, uses_anonymous_args = 0
 1308 0000 30B5     		push	{r4, r5, lr}
 1309 0002 83B0     		sub	sp, sp, #12
 1310 0004 069D     		ldr	r5, [sp, #24]
 1311 0006 2C0A     		lsrs	r4, r5, #8
 1312 0008 0134     		adds	r4, r4, #1
 1313 000a 0194     		str	r4, [sp, #4]
 1314 000c 0095     		str	r5, [sp]
 1315 000e FFF7FEFF 		bl	HAL_TIM_DMABurst_MultiWriteStart
 1316 0012 03B0     		add	sp, sp, #12
 1317              		@ sp needed
 1318 0014 30BD     		pop	{r4, r5, pc}
 1320              		.section	.text.HAL_TIM_DMABurst_WriteStop,"ax",%progbits
 1321              		.align	1
 1322              		.global	HAL_TIM_DMABurst_WriteStop
 1323              		.syntax unified
 1324              		.thumb
ARM GAS  C:\Users\PNGUBO~1\AppData\Local\Temp\ccYA2Pp6.s 			page 23


 1325              		.thumb_func
 1327              	HAL_TIM_DMABurst_WriteStop:
 1328              		@ args = 0, pretend = 0, frame = 0
 1329              		@ frame_needed = 0, uses_anonymous_args = 0
 1330 0000 38B5     		push	{r3, r4, r5, lr}
 1331 0002 0546     		mov	r5, r0
 1332 0004 0C46     		mov	r4, r1
 1333 0006 B1F5006F 		cmp	r1, #2048
 1334 000a 2FD0     		beq	.L127
 1335 000c 17D8     		bhi	.L128
 1336 000e B1F5007F 		cmp	r1, #512
 1337 0012 23D0     		beq	.L129
 1338 0014 B1F5806F 		cmp	r1, #1024
 1339 0018 24D0     		beq	.L130
 1340 001a B1F5807F 		cmp	r1, #256
 1341 001e 0CD1     		bne	.L138
 1342 0020 006A     		ldr	r0, [r0, #32]
 1343 0022 FFF7FEFF 		bl	HAL_DMA_Abort_IT
 1344              	.L136:
 1345 0026 2A68     		ldr	r2, [r5]
 1346 0028 D368     		ldr	r3, [r2, #12]
 1347 002a 23EA0403 		bic	r3, r3, r4
 1348 002e D360     		str	r3, [r2, #12]
 1349 0030 0123     		movs	r3, #1
 1350 0032 85F84630 		strb	r3, [r5, #70]
 1351 0036 0020     		movs	r0, #0
 1352              	.L132:
 1353 0038 38BD     		pop	{r3, r4, r5, pc}
 1354              	.L138:
 1355 003a 0120     		movs	r0, #1
 1356 003c FCE7     		b	.L132
 1357              	.L128:
 1358 003e B1F5005F 		cmp	r1, #8192
 1359 0042 17D0     		beq	.L133
 1360 0044 B1F5804F 		cmp	r1, #16384
 1361 0048 18D0     		beq	.L134
 1362 004a B1F5805F 		cmp	r1, #4096
 1363 004e 03D1     		bne	.L139
 1364 0050 006B     		ldr	r0, [r0, #48]
 1365 0052 FFF7FEFF 		bl	HAL_DMA_Abort_IT
 1366 0056 E6E7     		b	.L136
 1367              	.L139:
 1368 0058 0120     		movs	r0, #1
 1369 005a EDE7     		b	.L132
 1370              	.L129:
 1371 005c 406A     		ldr	r0, [r0, #36]
 1372 005e FFF7FEFF 		bl	HAL_DMA_Abort_IT
 1373 0062 E0E7     		b	.L136
 1374              	.L130:
 1375 0064 806A     		ldr	r0, [r0, #40]
 1376 0066 FFF7FEFF 		bl	HAL_DMA_Abort_IT
 1377 006a DCE7     		b	.L136
 1378              	.L127:
 1379 006c C06A     		ldr	r0, [r0, #44]
 1380 006e FFF7FEFF 		bl	HAL_DMA_Abort_IT
 1381 0072 D8E7     		b	.L136
 1382              	.L133:
ARM GAS  C:\Users\PNGUBO~1\AppData\Local\Temp\ccYA2Pp6.s 			page 24


 1383 0074 406B     		ldr	r0, [r0, #52]
 1384 0076 FFF7FEFF 		bl	HAL_DMA_Abort_IT
 1385 007a D4E7     		b	.L136
 1386              	.L134:
 1387 007c 806B     		ldr	r0, [r0, #56]
 1388 007e FFF7FEFF 		bl	HAL_DMA_Abort_IT
 1389 0082 D0E7     		b	.L136
 1391              		.section	.text.HAL_TIM_DMABurst_MultiReadStart,"ax",%progbits
 1392              		.align	1
 1393              		.global	HAL_TIM_DMABurst_MultiReadStart
 1394              		.syntax unified
 1395              		.thumb
 1396              		.thumb_func
 1398              	HAL_TIM_DMABurst_MultiReadStart:
 1399              		@ args = 8, pretend = 0, frame = 0
 1400              		@ frame_needed = 0, uses_anonymous_args = 0
 1401 0000 70B5     		push	{r4, r5, r6, lr}
 1402 0002 0446     		mov	r4, r0
 1403 0004 1546     		mov	r5, r2
 1404 0006 1A46     		mov	r2, r3
 1405 0008 90F84630 		ldrb	r3, [r0, #70]	@ zero_extendqisi2
 1406 000c D8B2     		uxtb	r0, r3
 1407 000e 022B     		cmp	r3, #2
 1408 0010 2DD0     		beq	.L141
 1409 0012 0E46     		mov	r6, r1
 1410 0014 94F84630 		ldrb	r3, [r4, #70]	@ zero_extendqisi2
 1411 0018 D8B2     		uxtb	r0, r3
 1412 001a 012B     		cmp	r3, #1
 1413 001c 28D0     		beq	.L161
 1414              	.L142:
 1415 001e B5F5006F 		cmp	r5, #2048
 1416 0022 74D0     		beq	.L144
 1417 0024 2FD8     		bhi	.L145
 1418 0026 B5F5007F 		cmp	r5, #512
 1419 002a 4AD0     		beq	.L146
 1420 002c B5F5806F 		cmp	r5, #1024
 1421 0030 5AD0     		beq	.L147
 1422 0032 B5F5807F 		cmp	r5, #256
 1423 0036 24D1     		bne	.L162
 1424 0038 236A     		ldr	r3, [r4, #32]
 1425 003a 5349     		ldr	r1, .L166
 1426 003c D963     		str	r1, [r3, #60]
 1427 003e 236A     		ldr	r3, [r4, #32]
 1428 0040 5249     		ldr	r1, .L166+4
 1429 0042 1964     		str	r1, [r3, #64]
 1430 0044 236A     		ldr	r3, [r4, #32]
 1431 0046 5249     		ldr	r1, .L166+8
 1432 0048 D964     		str	r1, [r3, #76]
 1433 004a 2168     		ldr	r1, [r4]
 1434 004c 059B     		ldr	r3, [sp, #20]
 1435 004e 4C31     		adds	r1, r1, #76
 1436 0050 206A     		ldr	r0, [r4, #32]
 1437 0052 FFF7FEFF 		bl	HAL_DMA_Start_IT
 1438 0056 0028     		cmp	r0, #0
 1439 0058 40F09380 		bne	.L163
 1440              	.L152:
 1441 005c 2368     		ldr	r3, [r4]
ARM GAS  C:\Users\PNGUBO~1\AppData\Local\Temp\ccYA2Pp6.s 			page 25


 1442 005e 049A     		ldr	r2, [sp, #16]
 1443 0060 1643     		orrs	r6, r6, r2
 1444 0062 9E64     		str	r6, [r3, #72]
 1445 0064 2268     		ldr	r2, [r4]
 1446 0066 D368     		ldr	r3, [r2, #12]
 1447 0068 2B43     		orrs	r3, r3, r5
 1448 006a D360     		str	r3, [r2, #12]
 1449 006c 0020     		movs	r0, #0
 1450              	.L141:
 1451 006e 70BD     		pop	{r4, r5, r6, pc}
 1452              	.L161:
 1453 0070 1AB1     		cbz	r2, .L164
 1454              	.L143:
 1455 0072 0223     		movs	r3, #2
 1456 0074 84F84630 		strb	r3, [r4, #70]
 1457 0078 D1E7     		b	.L142
 1458              	.L164:
 1459 007a 049B     		ldr	r3, [sp, #16]
 1460 007c 002B     		cmp	r3, #0
 1461 007e F8D0     		beq	.L143
 1462 0080 F5E7     		b	.L141
 1463              	.L162:
 1464 0082 0120     		movs	r0, #1
 1465 0084 F3E7     		b	.L141
 1466              	.L145:
 1467 0086 B5F5005F 		cmp	r5, #8192
 1468 008a 53D0     		beq	.L149
 1469 008c B5F5804F 		cmp	r5, #16384
 1470 0090 63D0     		beq	.L150
 1471 0092 B5F5805F 		cmp	r5, #4096
 1472 0096 12D1     		bne	.L165
 1473 0098 236B     		ldr	r3, [r4, #48]
 1474 009a 3E49     		ldr	r1, .L166+12
 1475 009c D963     		str	r1, [r3, #60]
 1476 009e 236B     		ldr	r3, [r4, #48]
 1477 00a0 3D49     		ldr	r1, .L166+16
 1478 00a2 1964     		str	r1, [r3, #64]
 1479 00a4 236B     		ldr	r3, [r4, #48]
 1480 00a6 3A49     		ldr	r1, .L166+8
 1481 00a8 D964     		str	r1, [r3, #76]
 1482 00aa 2168     		ldr	r1, [r4]
 1483 00ac 059B     		ldr	r3, [sp, #20]
 1484 00ae 4C31     		adds	r1, r1, #76
 1485 00b0 206B     		ldr	r0, [r4, #48]
 1486 00b2 FFF7FEFF 		bl	HAL_DMA_Start_IT
 1487 00b6 0028     		cmp	r0, #0
 1488 00b8 D0D0     		beq	.L152
 1489 00ba 0120     		movs	r0, #1
 1490 00bc D7E7     		b	.L141
 1491              	.L165:
 1492 00be 0120     		movs	r0, #1
 1493 00c0 D5E7     		b	.L141
 1494              	.L146:
 1495 00c2 636A     		ldr	r3, [r4, #36]
 1496 00c4 3349     		ldr	r1, .L166+12
 1497 00c6 D963     		str	r1, [r3, #60]
 1498 00c8 636A     		ldr	r3, [r4, #36]
ARM GAS  C:\Users\PNGUBO~1\AppData\Local\Temp\ccYA2Pp6.s 			page 26


 1499 00ca 3349     		ldr	r1, .L166+16
 1500 00cc 1964     		str	r1, [r3, #64]
 1501 00ce 636A     		ldr	r3, [r4, #36]
 1502 00d0 2F49     		ldr	r1, .L166+8
 1503 00d2 D964     		str	r1, [r3, #76]
 1504 00d4 2168     		ldr	r1, [r4]
 1505 00d6 059B     		ldr	r3, [sp, #20]
 1506 00d8 4C31     		adds	r1, r1, #76
 1507 00da 606A     		ldr	r0, [r4, #36]
 1508 00dc FFF7FEFF 		bl	HAL_DMA_Start_IT
 1509 00e0 0028     		cmp	r0, #0
 1510 00e2 BBD0     		beq	.L152
 1511 00e4 0120     		movs	r0, #1
 1512 00e6 C2E7     		b	.L141
 1513              	.L147:
 1514 00e8 A36A     		ldr	r3, [r4, #40]
 1515 00ea 2A49     		ldr	r1, .L166+12
 1516 00ec D963     		str	r1, [r3, #60]
 1517 00ee A36A     		ldr	r3, [r4, #40]
 1518 00f0 2949     		ldr	r1, .L166+16
 1519 00f2 1964     		str	r1, [r3, #64]
 1520 00f4 A36A     		ldr	r3, [r4, #40]
 1521 00f6 2649     		ldr	r1, .L166+8
 1522 00f8 D964     		str	r1, [r3, #76]
 1523 00fa 2168     		ldr	r1, [r4]
 1524 00fc 059B     		ldr	r3, [sp, #20]
 1525 00fe 4C31     		adds	r1, r1, #76
 1526 0100 A06A     		ldr	r0, [r4, #40]
 1527 0102 FFF7FEFF 		bl	HAL_DMA_Start_IT
 1528 0106 0028     		cmp	r0, #0
 1529 0108 A8D0     		beq	.L152
 1530 010a 0120     		movs	r0, #1
 1531 010c AFE7     		b	.L141
 1532              	.L144:
 1533 010e E36A     		ldr	r3, [r4, #44]
 1534 0110 2049     		ldr	r1, .L166+12
 1535 0112 D963     		str	r1, [r3, #60]
 1536 0114 E36A     		ldr	r3, [r4, #44]
 1537 0116 2049     		ldr	r1, .L166+16
 1538 0118 1964     		str	r1, [r3, #64]
 1539 011a E36A     		ldr	r3, [r4, #44]
 1540 011c 1C49     		ldr	r1, .L166+8
 1541 011e D964     		str	r1, [r3, #76]
 1542 0120 2168     		ldr	r1, [r4]
 1543 0122 059B     		ldr	r3, [sp, #20]
 1544 0124 4C31     		adds	r1, r1, #76
 1545 0126 E06A     		ldr	r0, [r4, #44]
 1546 0128 FFF7FEFF 		bl	HAL_DMA_Start_IT
 1547 012c 0028     		cmp	r0, #0
 1548 012e 95D0     		beq	.L152
 1549 0130 0120     		movs	r0, #1
 1550 0132 9CE7     		b	.L141
 1551              	.L149:
 1552 0134 636B     		ldr	r3, [r4, #52]
 1553 0136 1949     		ldr	r1, .L166+20
 1554 0138 D963     		str	r1, [r3, #60]
 1555 013a 636B     		ldr	r3, [r4, #52]
ARM GAS  C:\Users\PNGUBO~1\AppData\Local\Temp\ccYA2Pp6.s 			page 27


 1556 013c 1849     		ldr	r1, .L166+24
 1557 013e 1964     		str	r1, [r3, #64]
 1558 0140 636B     		ldr	r3, [r4, #52]
 1559 0142 1349     		ldr	r1, .L166+8
 1560 0144 D964     		str	r1, [r3, #76]
 1561 0146 2168     		ldr	r1, [r4]
 1562 0148 059B     		ldr	r3, [sp, #20]
 1563 014a 4C31     		adds	r1, r1, #76
 1564 014c 606B     		ldr	r0, [r4, #52]
 1565 014e FFF7FEFF 		bl	HAL_DMA_Start_IT
 1566 0152 0028     		cmp	r0, #0
 1567 0154 82D0     		beq	.L152
 1568 0156 0120     		movs	r0, #1
 1569 0158 89E7     		b	.L141
 1570              	.L150:
 1571 015a A36B     		ldr	r3, [r4, #56]
 1572 015c 1149     		ldr	r1, .L166+28
 1573 015e D963     		str	r1, [r3, #60]
 1574 0160 A36B     		ldr	r3, [r4, #56]
 1575 0162 1149     		ldr	r1, .L166+32
 1576 0164 1964     		str	r1, [r3, #64]
 1577 0166 A36B     		ldr	r3, [r4, #56]
 1578 0168 0949     		ldr	r1, .L166+8
 1579 016a D964     		str	r1, [r3, #76]
 1580 016c 2168     		ldr	r1, [r4]
 1581 016e 059B     		ldr	r3, [sp, #20]
 1582 0170 4C31     		adds	r1, r1, #76
 1583 0172 A06B     		ldr	r0, [r4, #56]
 1584 0174 FFF7FEFF 		bl	HAL_DMA_Start_IT
 1585 0178 0028     		cmp	r0, #0
 1586 017a 3FF46FAF 		beq	.L152
 1587 017e 0120     		movs	r0, #1
 1588 0180 75E7     		b	.L141
 1589              	.L163:
 1590 0182 0120     		movs	r0, #1
 1591 0184 73E7     		b	.L141
 1592              	.L167:
 1593 0186 00BF     		.align	2
 1594              	.L166:
 1595 0188 00000000 		.word	TIM_DMAPeriodElapsedCplt
 1596 018c 00000000 		.word	TIM_DMAPeriodElapsedHalfCplt
 1597 0190 00000000 		.word	TIM_DMAError
 1598 0194 00000000 		.word	TIM_DMACaptureCplt
 1599 0198 00000000 		.word	TIM_DMACaptureHalfCplt
 1600 019c 00000000 		.word	TIMEx_DMACommutationCplt
 1601 01a0 00000000 		.word	TIMEx_DMACommutationHalfCplt
 1602 01a4 00000000 		.word	TIM_DMATriggerCplt
 1603 01a8 00000000 		.word	TIM_DMATriggerHalfCplt
 1605              		.section	.text.HAL_TIM_DMABurst_ReadStart,"ax",%progbits
 1606              		.align	1
 1607              		.global	HAL_TIM_DMABurst_ReadStart
 1608              		.syntax unified
 1609              		.thumb
 1610              		.thumb_func
 1612              	HAL_TIM_DMABurst_ReadStart:
 1613              		@ args = 4, pretend = 0, frame = 0
 1614              		@ frame_needed = 0, uses_anonymous_args = 0
ARM GAS  C:\Users\PNGUBO~1\AppData\Local\Temp\ccYA2Pp6.s 			page 28


 1615 0000 30B5     		push	{r4, r5, lr}
 1616 0002 83B0     		sub	sp, sp, #12
 1617 0004 069D     		ldr	r5, [sp, #24]
 1618 0006 2C0A     		lsrs	r4, r5, #8
 1619 0008 0134     		adds	r4, r4, #1
 1620 000a 0194     		str	r4, [sp, #4]
 1621 000c 0095     		str	r5, [sp]
 1622 000e FFF7FEFF 		bl	HAL_TIM_DMABurst_MultiReadStart
 1623 0012 03B0     		add	sp, sp, #12
 1624              		@ sp needed
 1625 0014 30BD     		pop	{r4, r5, pc}
 1627              		.section	.text.HAL_TIM_DMABurst_ReadStop,"ax",%progbits
 1628              		.align	1
 1629              		.global	HAL_TIM_DMABurst_ReadStop
 1630              		.syntax unified
 1631              		.thumb
 1632              		.thumb_func
 1634              	HAL_TIM_DMABurst_ReadStop:
 1635              		@ args = 0, pretend = 0, frame = 0
 1636              		@ frame_needed = 0, uses_anonymous_args = 0
 1637 0000 38B5     		push	{r3, r4, r5, lr}
 1638 0002 0546     		mov	r5, r0
 1639 0004 0C46     		mov	r4, r1
 1640 0006 B1F5006F 		cmp	r1, #2048
 1641 000a 2FD0     		beq	.L171
 1642 000c 17D8     		bhi	.L172
 1643 000e B1F5007F 		cmp	r1, #512
 1644 0012 23D0     		beq	.L173
 1645 0014 B1F5806F 		cmp	r1, #1024
 1646 0018 24D0     		beq	.L174
 1647 001a B1F5807F 		cmp	r1, #256
 1648 001e 0CD1     		bne	.L182
 1649 0020 006A     		ldr	r0, [r0, #32]
 1650 0022 FFF7FEFF 		bl	HAL_DMA_Abort_IT
 1651              	.L180:
 1652 0026 2A68     		ldr	r2, [r5]
 1653 0028 D368     		ldr	r3, [r2, #12]
 1654 002a 23EA0403 		bic	r3, r3, r4
 1655 002e D360     		str	r3, [r2, #12]
 1656 0030 0123     		movs	r3, #1
 1657 0032 85F84630 		strb	r3, [r5, #70]
 1658 0036 0020     		movs	r0, #0
 1659              	.L176:
 1660 0038 38BD     		pop	{r3, r4, r5, pc}
 1661              	.L182:
 1662 003a 0120     		movs	r0, #1
 1663 003c FCE7     		b	.L176
 1664              	.L172:
 1665 003e B1F5005F 		cmp	r1, #8192
 1666 0042 17D0     		beq	.L177
 1667 0044 B1F5804F 		cmp	r1, #16384
 1668 0048 18D0     		beq	.L178
 1669 004a B1F5805F 		cmp	r1, #4096
 1670 004e 03D1     		bne	.L183
 1671 0050 006B     		ldr	r0, [r0, #48]
 1672 0052 FFF7FEFF 		bl	HAL_DMA_Abort_IT
 1673 0056 E6E7     		b	.L180
ARM GAS  C:\Users\PNGUBO~1\AppData\Local\Temp\ccYA2Pp6.s 			page 29


 1674              	.L183:
 1675 0058 0120     		movs	r0, #1
 1676 005a EDE7     		b	.L176
 1677              	.L173:
 1678 005c 406A     		ldr	r0, [r0, #36]
 1679 005e FFF7FEFF 		bl	HAL_DMA_Abort_IT
 1680 0062 E0E7     		b	.L180
 1681              	.L174:
 1682 0064 806A     		ldr	r0, [r0, #40]
 1683 0066 FFF7FEFF 		bl	HAL_DMA_Abort_IT
 1684 006a DCE7     		b	.L180
 1685              	.L171:
 1686 006c C06A     		ldr	r0, [r0, #44]
 1687 006e FFF7FEFF 		bl	HAL_DMA_Abort_IT
 1688 0072 D8E7     		b	.L180
 1689              	.L177:
 1690 0074 406B     		ldr	r0, [r0, #52]
 1691 0076 FFF7FEFF 		bl	HAL_DMA_Abort_IT
 1692 007a D4E7     		b	.L180
 1693              	.L178:
 1694 007c 806B     		ldr	r0, [r0, #56]
 1695 007e FFF7FEFF 		bl	HAL_DMA_Abort_IT
 1696 0082 D0E7     		b	.L180
 1698              		.section	.text.HAL_TIM_GenerateEvent,"ax",%progbits
 1699              		.align	1
 1700              		.global	HAL_TIM_GenerateEvent
 1701              		.syntax unified
 1702              		.thumb
 1703              		.thumb_func
 1705              	HAL_TIM_GenerateEvent:
 1706              		@ args = 0, pretend = 0, frame = 0
 1707              		@ frame_needed = 0, uses_anonymous_args = 0
 1708              		@ link register save eliminated.
 1709 0000 90F83C30 		ldrb	r3, [r0, #60]	@ zero_extendqisi2
 1710 0004 012B     		cmp	r3, #1
 1711 0006 0ED0     		beq	.L186
 1712 0008 0123     		movs	r3, #1
 1713 000a 80F83C30 		strb	r3, [r0, #60]
 1714 000e 0222     		movs	r2, #2
 1715 0010 80F83D20 		strb	r2, [r0, #61]
 1716 0014 0268     		ldr	r2, [r0]
 1717 0016 5161     		str	r1, [r2, #20]
 1718 0018 80F83D30 		strb	r3, [r0, #61]
 1719 001c 0023     		movs	r3, #0
 1720 001e 80F83C30 		strb	r3, [r0, #60]
 1721 0022 1846     		mov	r0, r3
 1722 0024 7047     		bx	lr
 1723              	.L186:
 1724 0026 0220     		movs	r0, #2
 1725 0028 7047     		bx	lr
 1727              		.section	.text.HAL_TIM_ConfigTI1Input,"ax",%progbits
 1728              		.align	1
 1729              		.global	HAL_TIM_ConfigTI1Input
 1730              		.syntax unified
 1731              		.thumb
 1732              		.thumb_func
 1734              	HAL_TIM_ConfigTI1Input:
ARM GAS  C:\Users\PNGUBO~1\AppData\Local\Temp\ccYA2Pp6.s 			page 30


 1735              		@ args = 0, pretend = 0, frame = 0
 1736              		@ frame_needed = 0, uses_anonymous_args = 0
 1737              		@ link register save eliminated.
 1738 0000 0268     		ldr	r2, [r0]
 1739 0002 5368     		ldr	r3, [r2, #4]
 1740 0004 23F08003 		bic	r3, r3, #128
 1741 0008 0B43     		orrs	r3, r3, r1
 1742 000a 5360     		str	r3, [r2, #4]
 1743 000c 0020     		movs	r0, #0
 1744 000e 7047     		bx	lr
 1746              		.section	.text.HAL_TIM_ReadCapturedValue,"ax",%progbits
 1747              		.align	1
 1748              		.global	HAL_TIM_ReadCapturedValue
 1749              		.syntax unified
 1750              		.thumb
 1751              		.thumb_func
 1753              	HAL_TIM_ReadCapturedValue:
 1754              		@ args = 0, pretend = 0, frame = 0
 1755              		@ frame_needed = 0, uses_anonymous_args = 0
 1756              		@ link register save eliminated.
 1757 0000 0C29     		cmp	r1, #12
 1758 0002 14D8     		bhi	.L195
 1759 0004 DFE801F0 		tbb	[pc, r1]
 1760              	.L191:
 1761 0008 07       		.byte	(.L194-.L191)/2
 1762 0009 13       		.byte	(.L195-.L191)/2
 1763 000a 13       		.byte	(.L195-.L191)/2
 1764 000b 13       		.byte	(.L195-.L191)/2
 1765 000c 0A       		.byte	(.L193-.L191)/2
 1766 000d 13       		.byte	(.L195-.L191)/2
 1767 000e 13       		.byte	(.L195-.L191)/2
 1768 000f 13       		.byte	(.L195-.L191)/2
 1769 0010 0D       		.byte	(.L192-.L191)/2
 1770 0011 13       		.byte	(.L195-.L191)/2
 1771 0012 13       		.byte	(.L195-.L191)/2
 1772 0013 13       		.byte	(.L195-.L191)/2
 1773 0014 10       		.byte	(.L190-.L191)/2
 1774 0015 00       		.p2align 1
 1775              	.L194:
 1776 0016 0368     		ldr	r3, [r0]
 1777 0018 586B     		ldr	r0, [r3, #52]
 1778 001a 7047     		bx	lr
 1779              	.L193:
 1780 001c 0368     		ldr	r3, [r0]
 1781 001e 986B     		ldr	r0, [r3, #56]
 1782 0020 7047     		bx	lr
 1783              	.L192:
 1784 0022 0368     		ldr	r3, [r0]
 1785 0024 D86B     		ldr	r0, [r3, #60]
 1786 0026 7047     		bx	lr
 1787              	.L190:
 1788 0028 0368     		ldr	r3, [r0]
 1789 002a 186C     		ldr	r0, [r3, #64]
 1790 002c 7047     		bx	lr
 1791              	.L195:
 1792 002e 0020     		movs	r0, #0
 1793 0030 7047     		bx	lr
ARM GAS  C:\Users\PNGUBO~1\AppData\Local\Temp\ccYA2Pp6.s 			page 31


 1795              		.section	.text.HAL_TIM_PeriodElapsedCallback,"ax",%progbits
 1796              		.align	1
 1797              		.weak	HAL_TIM_PeriodElapsedCallback
 1798              		.syntax unified
 1799              		.thumb
 1800              		.thumb_func
 1802              	HAL_TIM_PeriodElapsedCallback:
 1803              		@ args = 0, pretend = 0, frame = 0
 1804              		@ frame_needed = 0, uses_anonymous_args = 0
 1805              		@ link register save eliminated.
 1806 0000 7047     		bx	lr
 1808              		.section	.text.TIM_DMAPeriodElapsedCplt,"ax",%progbits
 1809              		.align	1
 1810              		.syntax unified
 1811              		.thumb
 1812              		.thumb_func
 1814              	TIM_DMAPeriodElapsedCplt:
 1815              		@ args = 0, pretend = 0, frame = 0
 1816              		@ frame_needed = 0, uses_anonymous_args = 0
 1817 0000 08B5     		push	{r3, lr}
 1818 0002 806B     		ldr	r0, [r0, #56]
 1819 0004 036A     		ldr	r3, [r0, #32]
 1820 0006 DB69     		ldr	r3, [r3, #28]
 1821 0008 13B9     		cbnz	r3, .L198
 1822 000a 0123     		movs	r3, #1
 1823 000c 80F83D30 		strb	r3, [r0, #61]
 1824              	.L198:
 1825 0010 FFF7FEFF 		bl	HAL_TIM_PeriodElapsedCallback
 1826 0014 08BD     		pop	{r3, pc}
 1828              		.section	.text.HAL_TIM_PeriodElapsedHalfCpltCallback,"ax",%progbits
 1829              		.align	1
 1830              		.weak	HAL_TIM_PeriodElapsedHalfCpltCallback
 1831              		.syntax unified
 1832              		.thumb
 1833              		.thumb_func
 1835              	HAL_TIM_PeriodElapsedHalfCpltCallback:
 1836              		@ args = 0, pretend = 0, frame = 0
 1837              		@ frame_needed = 0, uses_anonymous_args = 0
 1838              		@ link register save eliminated.
 1839 0000 7047     		bx	lr
 1841              		.section	.text.TIM_DMAPeriodElapsedHalfCplt,"ax",%progbits
 1842              		.align	1
 1843              		.syntax unified
 1844              		.thumb
 1845              		.thumb_func
 1847              	TIM_DMAPeriodElapsedHalfCplt:
 1848              		@ args = 0, pretend = 0, frame = 0
 1849              		@ frame_needed = 0, uses_anonymous_args = 0
 1850 0000 08B5     		push	{r3, lr}
 1851 0002 806B     		ldr	r0, [r0, #56]
 1852 0004 FFF7FEFF 		bl	HAL_TIM_PeriodElapsedHalfCpltCallback
 1853 0008 08BD     		pop	{r3, pc}
 1855              		.section	.text.HAL_TIM_OC_DelayElapsedCallback,"ax",%progbits
 1856              		.align	1
 1857              		.weak	HAL_TIM_OC_DelayElapsedCallback
 1858              		.syntax unified
 1859              		.thumb
ARM GAS  C:\Users\PNGUBO~1\AppData\Local\Temp\ccYA2Pp6.s 			page 32


 1860              		.thumb_func
 1862              	HAL_TIM_OC_DelayElapsedCallback:
 1863              		@ args = 0, pretend = 0, frame = 0
 1864              		@ frame_needed = 0, uses_anonymous_args = 0
 1865              		@ link register save eliminated.
 1866 0000 7047     		bx	lr
 1868              		.section	.text.HAL_TIM_IC_CaptureCallback,"ax",%progbits
 1869              		.align	1
 1870              		.weak	HAL_TIM_IC_CaptureCallback
 1871              		.syntax unified
 1872              		.thumb
 1873              		.thumb_func
 1875              	HAL_TIM_IC_CaptureCallback:
 1876              		@ args = 0, pretend = 0, frame = 0
 1877              		@ frame_needed = 0, uses_anonymous_args = 0
 1878              		@ link register save eliminated.
 1879 0000 7047     		bx	lr
 1881              		.section	.text.TIM_DMACaptureCplt,"ax",%progbits
 1882              		.align	1
 1883              		.global	TIM_DMACaptureCplt
 1884              		.syntax unified
 1885              		.thumb
 1886              		.thumb_func
 1888              	TIM_DMACaptureCplt:
 1889              		@ args = 0, pretend = 0, frame = 0
 1890              		@ frame_needed = 0, uses_anonymous_args = 0
 1891 0000 10B5     		push	{r4, lr}
 1892 0002 846B     		ldr	r4, [r0, #56]
 1893 0004 636A     		ldr	r3, [r4, #36]
 1894 0006 8342     		cmp	r3, r0
 1895 0008 0ED0     		beq	.L211
 1896 000a A36A     		ldr	r3, [r4, #40]
 1897 000c 8342     		cmp	r3, r0
 1898 000e 16D0     		beq	.L212
 1899 0010 E36A     		ldr	r3, [r4, #44]
 1900 0012 8342     		cmp	r3, r0
 1901 0014 1ED0     		beq	.L213
 1902 0016 236B     		ldr	r3, [r4, #48]
 1903 0018 8342     		cmp	r3, r0
 1904 001a 26D0     		beq	.L214
 1905              	.L207:
 1906 001c 2046     		mov	r0, r4
 1907 001e FFF7FEFF 		bl	HAL_TIM_IC_CaptureCallback
 1908 0022 0023     		movs	r3, #0
 1909 0024 2377     		strb	r3, [r4, #28]
 1910 0026 10BD     		pop	{r4, pc}
 1911              	.L211:
 1912 0028 0123     		movs	r3, #1
 1913 002a 2377     		strb	r3, [r4, #28]
 1914 002c C369     		ldr	r3, [r0, #28]
 1915 002e 002B     		cmp	r3, #0
 1916 0030 F4D1     		bne	.L207
 1917 0032 0123     		movs	r3, #1
 1918 0034 84F83E30 		strb	r3, [r4, #62]
 1919 0038 84F84230 		strb	r3, [r4, #66]
 1920 003c EEE7     		b	.L207
 1921              	.L212:
ARM GAS  C:\Users\PNGUBO~1\AppData\Local\Temp\ccYA2Pp6.s 			page 33


 1922 003e 0223     		movs	r3, #2
 1923 0040 2377     		strb	r3, [r4, #28]
 1924 0042 C369     		ldr	r3, [r0, #28]
 1925 0044 002B     		cmp	r3, #0
 1926 0046 E9D1     		bne	.L207
 1927 0048 0123     		movs	r3, #1
 1928 004a 84F83F30 		strb	r3, [r4, #63]
 1929 004e 84F84330 		strb	r3, [r4, #67]
 1930 0052 E3E7     		b	.L207
 1931              	.L213:
 1932 0054 0423     		movs	r3, #4
 1933 0056 2377     		strb	r3, [r4, #28]
 1934 0058 C369     		ldr	r3, [r0, #28]
 1935 005a 002B     		cmp	r3, #0
 1936 005c DED1     		bne	.L207
 1937 005e 0123     		movs	r3, #1
 1938 0060 84F84030 		strb	r3, [r4, #64]
 1939 0064 84F84430 		strb	r3, [r4, #68]
 1940 0068 D8E7     		b	.L207
 1941              	.L214:
 1942 006a 0823     		movs	r3, #8
 1943 006c 2377     		strb	r3, [r4, #28]
 1944 006e C369     		ldr	r3, [r0, #28]
 1945 0070 002B     		cmp	r3, #0
 1946 0072 D3D1     		bne	.L207
 1947 0074 0123     		movs	r3, #1
 1948 0076 84F84130 		strb	r3, [r4, #65]
 1949 007a 84F84530 		strb	r3, [r4, #69]
 1950 007e CDE7     		b	.L207
 1952              		.section	.text.HAL_TIM_IC_CaptureHalfCpltCallback,"ax",%progbits
 1953              		.align	1
 1954              		.weak	HAL_TIM_IC_CaptureHalfCpltCallback
 1955              		.syntax unified
 1956              		.thumb
 1957              		.thumb_func
 1959              	HAL_TIM_IC_CaptureHalfCpltCallback:
 1960              		@ args = 0, pretend = 0, frame = 0
 1961              		@ frame_needed = 0, uses_anonymous_args = 0
 1962              		@ link register save eliminated.
 1963 0000 7047     		bx	lr
 1965              		.section	.text.TIM_DMACaptureHalfCplt,"ax",%progbits
 1966              		.align	1
 1967              		.global	TIM_DMACaptureHalfCplt
 1968              		.syntax unified
 1969              		.thumb
 1970              		.thumb_func
 1972              	TIM_DMACaptureHalfCplt:
 1973              		@ args = 0, pretend = 0, frame = 0
 1974              		@ frame_needed = 0, uses_anonymous_args = 0
 1975 0000 10B5     		push	{r4, lr}
 1976 0002 846B     		ldr	r4, [r0, #56]
 1977 0004 636A     		ldr	r3, [r4, #36]
 1978 0006 8342     		cmp	r3, r0
 1979 0008 0BD0     		beq	.L222
 1980 000a A36A     		ldr	r3, [r4, #40]
 1981 000c 8342     		cmp	r3, r0
 1982 000e 10D0     		beq	.L223
ARM GAS  C:\Users\PNGUBO~1\AppData\Local\Temp\ccYA2Pp6.s 			page 34


 1983 0010 E36A     		ldr	r3, [r4, #44]
 1984 0012 8342     		cmp	r3, r0
 1985 0014 10D0     		beq	.L224
 1986 0016 236B     		ldr	r3, [r4, #48]
 1987 0018 8342     		cmp	r3, r0
 1988 001a 04D1     		bne	.L218
 1989 001c 0823     		movs	r3, #8
 1990 001e 2377     		strb	r3, [r4, #28]
 1991 0020 01E0     		b	.L218
 1992              	.L222:
 1993 0022 0123     		movs	r3, #1
 1994 0024 2377     		strb	r3, [r4, #28]
 1995              	.L218:
 1996 0026 2046     		mov	r0, r4
 1997 0028 FFF7FEFF 		bl	HAL_TIM_IC_CaptureHalfCpltCallback
 1998 002c 0023     		movs	r3, #0
 1999 002e 2377     		strb	r3, [r4, #28]
 2000 0030 10BD     		pop	{r4, pc}
 2001              	.L223:
 2002 0032 0223     		movs	r3, #2
 2003 0034 2377     		strb	r3, [r4, #28]
 2004 0036 F6E7     		b	.L218
 2005              	.L224:
 2006 0038 0423     		movs	r3, #4
 2007 003a 2377     		strb	r3, [r4, #28]
 2008 003c F3E7     		b	.L218
 2010              		.section	.text.HAL_TIM_PWM_PulseFinishedCallback,"ax",%progbits
 2011              		.align	1
 2012              		.weak	HAL_TIM_PWM_PulseFinishedCallback
 2013              		.syntax unified
 2014              		.thumb
 2015              		.thumb_func
 2017              	HAL_TIM_PWM_PulseFinishedCallback:
 2018              		@ args = 0, pretend = 0, frame = 0
 2019              		@ frame_needed = 0, uses_anonymous_args = 0
 2020              		@ link register save eliminated.
 2021 0000 7047     		bx	lr
 2023              		.section	.text.TIM_DMADelayPulseCplt,"ax",%progbits
 2024              		.align	1
 2025              		.syntax unified
 2026              		.thumb
 2027              		.thumb_func
 2029              	TIM_DMADelayPulseCplt:
 2030              		@ args = 0, pretend = 0, frame = 0
 2031              		@ frame_needed = 0, uses_anonymous_args = 0
 2032 0000 10B5     		push	{r4, lr}
 2033 0002 846B     		ldr	r4, [r0, #56]
 2034 0004 636A     		ldr	r3, [r4, #36]
 2035 0006 8342     		cmp	r3, r0
 2036 0008 0ED0     		beq	.L232
 2037 000a A36A     		ldr	r3, [r4, #40]
 2038 000c 8342     		cmp	r3, r0
 2039 000e 14D0     		beq	.L233
 2040 0010 E36A     		ldr	r3, [r4, #44]
 2041 0012 8342     		cmp	r3, r0
 2042 0014 1AD0     		beq	.L234
 2043 0016 236B     		ldr	r3, [r4, #48]
ARM GAS  C:\Users\PNGUBO~1\AppData\Local\Temp\ccYA2Pp6.s 			page 35


 2044 0018 8342     		cmp	r3, r0
 2045 001a 20D0     		beq	.L235
 2046              	.L228:
 2047 001c 2046     		mov	r0, r4
 2048 001e FFF7FEFF 		bl	HAL_TIM_PWM_PulseFinishedCallback
 2049 0022 0023     		movs	r3, #0
 2050 0024 2377     		strb	r3, [r4, #28]
 2051 0026 10BD     		pop	{r4, pc}
 2052              	.L232:
 2053 0028 0123     		movs	r3, #1
 2054 002a 2377     		strb	r3, [r4, #28]
 2055 002c C369     		ldr	r3, [r0, #28]
 2056 002e 002B     		cmp	r3, #0
 2057 0030 F4D1     		bne	.L228
 2058 0032 0123     		movs	r3, #1
 2059 0034 84F83E30 		strb	r3, [r4, #62]
 2060 0038 F0E7     		b	.L228
 2061              	.L233:
 2062 003a 0223     		movs	r3, #2
 2063 003c 2377     		strb	r3, [r4, #28]
 2064 003e C369     		ldr	r3, [r0, #28]
 2065 0040 002B     		cmp	r3, #0
 2066 0042 EBD1     		bne	.L228
 2067 0044 0123     		movs	r3, #1
 2068 0046 84F83F30 		strb	r3, [r4, #63]
 2069 004a E7E7     		b	.L228
 2070              	.L234:
 2071 004c 0423     		movs	r3, #4
 2072 004e 2377     		strb	r3, [r4, #28]
 2073 0050 C369     		ldr	r3, [r0, #28]
 2074 0052 002B     		cmp	r3, #0
 2075 0054 E2D1     		bne	.L228
 2076 0056 0123     		movs	r3, #1
 2077 0058 84F84030 		strb	r3, [r4, #64]
 2078 005c DEE7     		b	.L228
 2079              	.L235:
 2080 005e 0823     		movs	r3, #8
 2081 0060 2377     		strb	r3, [r4, #28]
 2082 0062 C369     		ldr	r3, [r0, #28]
 2083 0064 002B     		cmp	r3, #0
 2084 0066 D9D1     		bne	.L228
 2085 0068 0123     		movs	r3, #1
 2086 006a 84F84130 		strb	r3, [r4, #65]
 2087 006e D5E7     		b	.L228
 2089              		.section	.text.HAL_TIM_PWM_PulseFinishedHalfCpltCallback,"ax",%progbits
 2090              		.align	1
 2091              		.weak	HAL_TIM_PWM_PulseFinishedHalfCpltCallback
 2092              		.syntax unified
 2093              		.thumb
 2094              		.thumb_func
 2096              	HAL_TIM_PWM_PulseFinishedHalfCpltCallback:
 2097              		@ args = 0, pretend = 0, frame = 0
 2098              		@ frame_needed = 0, uses_anonymous_args = 0
 2099              		@ link register save eliminated.
 2100 0000 7047     		bx	lr
 2102              		.section	.text.TIM_DMADelayPulseHalfCplt,"ax",%progbits
 2103              		.align	1
ARM GAS  C:\Users\PNGUBO~1\AppData\Local\Temp\ccYA2Pp6.s 			page 36


 2104              		.global	TIM_DMADelayPulseHalfCplt
 2105              		.syntax unified
 2106              		.thumb
 2107              		.thumb_func
 2109              	TIM_DMADelayPulseHalfCplt:
 2110              		@ args = 0, pretend = 0, frame = 0
 2111              		@ frame_needed = 0, uses_anonymous_args = 0
 2112 0000 10B5     		push	{r4, lr}
 2113 0002 846B     		ldr	r4, [r0, #56]
 2114 0004 636A     		ldr	r3, [r4, #36]
 2115 0006 8342     		cmp	r3, r0
 2116 0008 0BD0     		beq	.L243
 2117 000a A36A     		ldr	r3, [r4, #40]
 2118 000c 8342     		cmp	r3, r0
 2119 000e 10D0     		beq	.L244
 2120 0010 E36A     		ldr	r3, [r4, #44]
 2121 0012 8342     		cmp	r3, r0
 2122 0014 10D0     		beq	.L245
 2123 0016 236B     		ldr	r3, [r4, #48]
 2124 0018 8342     		cmp	r3, r0
 2125 001a 04D1     		bne	.L239
 2126 001c 0823     		movs	r3, #8
 2127 001e 2377     		strb	r3, [r4, #28]
 2128 0020 01E0     		b	.L239
 2129              	.L243:
 2130 0022 0123     		movs	r3, #1
 2131 0024 2377     		strb	r3, [r4, #28]
 2132              	.L239:
 2133 0026 2046     		mov	r0, r4
 2134 0028 FFF7FEFF 		bl	HAL_TIM_PWM_PulseFinishedHalfCpltCallback
 2135 002c 0023     		movs	r3, #0
 2136 002e 2377     		strb	r3, [r4, #28]
 2137 0030 10BD     		pop	{r4, pc}
 2138              	.L244:
 2139 0032 0223     		movs	r3, #2
 2140 0034 2377     		strb	r3, [r4, #28]
 2141 0036 F6E7     		b	.L239
 2142              	.L245:
 2143 0038 0423     		movs	r3, #4
 2144 003a 2377     		strb	r3, [r4, #28]
 2145 003c F3E7     		b	.L239
 2147              		.section	.text.HAL_TIM_TriggerCallback,"ax",%progbits
 2148              		.align	1
 2149              		.weak	HAL_TIM_TriggerCallback
 2150              		.syntax unified
 2151              		.thumb
 2152              		.thumb_func
 2154              	HAL_TIM_TriggerCallback:
 2155              		@ args = 0, pretend = 0, frame = 0
 2156              		@ frame_needed = 0, uses_anonymous_args = 0
 2157              		@ link register save eliminated.
 2158 0000 7047     		bx	lr
 2160              		.section	.text.HAL_TIM_IRQHandler,"ax",%progbits
 2161              		.align	1
 2162              		.global	HAL_TIM_IRQHandler
 2163              		.syntax unified
 2164              		.thumb
ARM GAS  C:\Users\PNGUBO~1\AppData\Local\Temp\ccYA2Pp6.s 			page 37


 2165              		.thumb_func
 2167              	HAL_TIM_IRQHandler:
 2168              		@ args = 0, pretend = 0, frame = 0
 2169              		@ frame_needed = 0, uses_anonymous_args = 0
 2170 0000 70B5     		push	{r4, r5, r6, lr}
 2171 0002 0446     		mov	r4, r0
 2172 0004 0368     		ldr	r3, [r0]
 2173 0006 DE68     		ldr	r6, [r3, #12]
 2174 0008 1D69     		ldr	r5, [r3, #16]
 2175 000a 15F0020F 		tst	r5, #2
 2176 000e 10D0     		beq	.L248
 2177 0010 16F0020F 		tst	r6, #2
 2178 0014 0DD0     		beq	.L248
 2179 0016 6FF00202 		mvn	r2, #2
 2180 001a 1A61     		str	r2, [r3, #16]
 2181 001c 0123     		movs	r3, #1
 2182 001e 0377     		strb	r3, [r0, #28]
 2183 0020 0368     		ldr	r3, [r0]
 2184 0022 9B69     		ldr	r3, [r3, #24]
 2185 0024 13F0030F 		tst	r3, #3
 2186 0028 5ED0     		beq	.L249
 2187 002a FFF7FEFF 		bl	HAL_TIM_IC_CaptureCallback
 2188              	.L250:
 2189 002e 0023     		movs	r3, #0
 2190 0030 2377     		strb	r3, [r4, #28]
 2191              	.L248:
 2192 0032 15F0040F 		tst	r5, #4
 2193 0036 12D0     		beq	.L251
 2194 0038 16F0040F 		tst	r6, #4
 2195 003c 0FD0     		beq	.L251
 2196 003e 2368     		ldr	r3, [r4]
 2197 0040 6FF00402 		mvn	r2, #4
 2198 0044 1A61     		str	r2, [r3, #16]
 2199 0046 0223     		movs	r3, #2
 2200 0048 2377     		strb	r3, [r4, #28]
 2201 004a 2368     		ldr	r3, [r4]
 2202 004c 9B69     		ldr	r3, [r3, #24]
 2203 004e 13F4407F 		tst	r3, #768
 2204 0052 4FD0     		beq	.L252
 2205 0054 2046     		mov	r0, r4
 2206 0056 FFF7FEFF 		bl	HAL_TIM_IC_CaptureCallback
 2207              	.L253:
 2208 005a 0023     		movs	r3, #0
 2209 005c 2377     		strb	r3, [r4, #28]
 2210              	.L251:
 2211 005e 15F0080F 		tst	r5, #8
 2212 0062 12D0     		beq	.L254
 2213 0064 16F0080F 		tst	r6, #8
 2214 0068 0FD0     		beq	.L254
 2215 006a 2368     		ldr	r3, [r4]
 2216 006c 6FF00802 		mvn	r2, #8
 2217 0070 1A61     		str	r2, [r3, #16]
 2218 0072 0423     		movs	r3, #4
 2219 0074 2377     		strb	r3, [r4, #28]
 2220 0076 2368     		ldr	r3, [r4]
 2221 0078 DB69     		ldr	r3, [r3, #28]
 2222 007a 13F0030F 		tst	r3, #3
ARM GAS  C:\Users\PNGUBO~1\AppData\Local\Temp\ccYA2Pp6.s 			page 38


 2223 007e 40D0     		beq	.L255
 2224 0080 2046     		mov	r0, r4
 2225 0082 FFF7FEFF 		bl	HAL_TIM_IC_CaptureCallback
 2226              	.L256:
 2227 0086 0023     		movs	r3, #0
 2228 0088 2377     		strb	r3, [r4, #28]
 2229              	.L254:
 2230 008a 15F0100F 		tst	r5, #16
 2231 008e 12D0     		beq	.L257
 2232 0090 16F0100F 		tst	r6, #16
 2233 0094 0FD0     		beq	.L257
 2234 0096 2368     		ldr	r3, [r4]
 2235 0098 6FF01002 		mvn	r2, #16
 2236 009c 1A61     		str	r2, [r3, #16]
 2237 009e 0823     		movs	r3, #8
 2238 00a0 2377     		strb	r3, [r4, #28]
 2239 00a2 2368     		ldr	r3, [r4]
 2240 00a4 DB69     		ldr	r3, [r3, #28]
 2241 00a6 13F4407F 		tst	r3, #768
 2242 00aa 31D0     		beq	.L258
 2243 00ac 2046     		mov	r0, r4
 2244 00ae FFF7FEFF 		bl	HAL_TIM_IC_CaptureCallback
 2245              	.L259:
 2246 00b2 0023     		movs	r3, #0
 2247 00b4 2377     		strb	r3, [r4, #28]
 2248              	.L257:
 2249 00b6 15F0010F 		tst	r5, #1
 2250 00ba 02D0     		beq	.L260
 2251 00bc 16F0010F 		tst	r6, #1
 2252 00c0 2DD1     		bne	.L265
 2253              	.L260:
 2254 00c2 15F0800F 		tst	r5, #128
 2255 00c6 02D0     		beq	.L261
 2256 00c8 16F0800F 		tst	r6, #128
 2257 00cc 2FD1     		bne	.L266
 2258              	.L261:
 2259 00ce 15F0400F 		tst	r5, #64
 2260 00d2 02D0     		beq	.L262
 2261 00d4 16F0400F 		tst	r6, #64
 2262 00d8 31D1     		bne	.L267
 2263              	.L262:
 2264 00da 15F0200F 		tst	r5, #32
 2265 00de 02D0     		beq	.L247
 2266 00e0 16F0200F 		tst	r6, #32
 2267 00e4 33D1     		bne	.L268
 2268              	.L247:
 2269 00e6 70BD     		pop	{r4, r5, r6, pc}
 2270              	.L249:
 2271 00e8 FFF7FEFF 		bl	HAL_TIM_OC_DelayElapsedCallback
 2272 00ec 2046     		mov	r0, r4
 2273 00ee FFF7FEFF 		bl	HAL_TIM_PWM_PulseFinishedCallback
 2274 00f2 9CE7     		b	.L250
 2275              	.L252:
 2276 00f4 2046     		mov	r0, r4
 2277 00f6 FFF7FEFF 		bl	HAL_TIM_OC_DelayElapsedCallback
 2278 00fa 2046     		mov	r0, r4
 2279 00fc FFF7FEFF 		bl	HAL_TIM_PWM_PulseFinishedCallback
ARM GAS  C:\Users\PNGUBO~1\AppData\Local\Temp\ccYA2Pp6.s 			page 39


 2280 0100 ABE7     		b	.L253
 2281              	.L255:
 2282 0102 2046     		mov	r0, r4
 2283 0104 FFF7FEFF 		bl	HAL_TIM_OC_DelayElapsedCallback
 2284 0108 2046     		mov	r0, r4
 2285 010a FFF7FEFF 		bl	HAL_TIM_PWM_PulseFinishedCallback
 2286 010e BAE7     		b	.L256
 2287              	.L258:
 2288 0110 2046     		mov	r0, r4
 2289 0112 FFF7FEFF 		bl	HAL_TIM_OC_DelayElapsedCallback
 2290 0116 2046     		mov	r0, r4
 2291 0118 FFF7FEFF 		bl	HAL_TIM_PWM_PulseFinishedCallback
 2292 011c C9E7     		b	.L259
 2293              	.L265:
 2294 011e 2368     		ldr	r3, [r4]
 2295 0120 6FF00102 		mvn	r2, #1
 2296 0124 1A61     		str	r2, [r3, #16]
 2297 0126 2046     		mov	r0, r4
 2298 0128 FFF7FEFF 		bl	HAL_TIM_PeriodElapsedCallback
 2299 012c C9E7     		b	.L260
 2300              	.L266:
 2301 012e 2368     		ldr	r3, [r4]
 2302 0130 6FF08002 		mvn	r2, #128
 2303 0134 1A61     		str	r2, [r3, #16]
 2304 0136 2046     		mov	r0, r4
 2305 0138 FFF7FEFF 		bl	HAL_TIMEx_BreakCallback
 2306 013c C7E7     		b	.L261
 2307              	.L267:
 2308 013e 2368     		ldr	r3, [r4]
 2309 0140 6FF04002 		mvn	r2, #64
 2310 0144 1A61     		str	r2, [r3, #16]
 2311 0146 2046     		mov	r0, r4
 2312 0148 FFF7FEFF 		bl	HAL_TIM_TriggerCallback
 2313 014c C5E7     		b	.L262
 2314              	.L268:
 2315 014e 2368     		ldr	r3, [r4]
 2316 0150 6FF02002 		mvn	r2, #32
 2317 0154 1A61     		str	r2, [r3, #16]
 2318 0156 2046     		mov	r0, r4
 2319 0158 FFF7FEFF 		bl	HAL_TIMEx_CommutCallback
 2320 015c C3E7     		b	.L247
 2322              		.section	.text.TIM_DMATriggerCplt,"ax",%progbits
 2323              		.align	1
 2324              		.syntax unified
 2325              		.thumb
 2326              		.thumb_func
 2328              	TIM_DMATriggerCplt:
 2329              		@ args = 0, pretend = 0, frame = 0
 2330              		@ frame_needed = 0, uses_anonymous_args = 0
 2331 0000 08B5     		push	{r3, lr}
 2332 0002 806B     		ldr	r0, [r0, #56]
 2333 0004 836B     		ldr	r3, [r0, #56]
 2334 0006 DB69     		ldr	r3, [r3, #28]
 2335 0008 13B9     		cbnz	r3, .L270
 2336 000a 0123     		movs	r3, #1
 2337 000c 80F83D30 		strb	r3, [r0, #61]
 2338              	.L270:
ARM GAS  C:\Users\PNGUBO~1\AppData\Local\Temp\ccYA2Pp6.s 			page 40


 2339 0010 FFF7FEFF 		bl	HAL_TIM_TriggerCallback
 2340 0014 08BD     		pop	{r3, pc}
 2342              		.section	.text.HAL_TIM_TriggerHalfCpltCallback,"ax",%progbits
 2343              		.align	1
 2344              		.weak	HAL_TIM_TriggerHalfCpltCallback
 2345              		.syntax unified
 2346              		.thumb
 2347              		.thumb_func
 2349              	HAL_TIM_TriggerHalfCpltCallback:
 2350              		@ args = 0, pretend = 0, frame = 0
 2351              		@ frame_needed = 0, uses_anonymous_args = 0
 2352              		@ link register save eliminated.
 2353 0000 7047     		bx	lr
 2355              		.section	.text.TIM_DMATriggerHalfCplt,"ax",%progbits
 2356              		.align	1
 2357              		.syntax unified
 2358              		.thumb
 2359              		.thumb_func
 2361              	TIM_DMATriggerHalfCplt:
 2362              		@ args = 0, pretend = 0, frame = 0
 2363              		@ frame_needed = 0, uses_anonymous_args = 0
 2364 0000 08B5     		push	{r3, lr}
 2365 0002 806B     		ldr	r0, [r0, #56]
 2366 0004 FFF7FEFF 		bl	HAL_TIM_TriggerHalfCpltCallback
 2367 0008 08BD     		pop	{r3, pc}
 2369              		.section	.text.HAL_TIM_ErrorCallback,"ax",%progbits
 2370              		.align	1
 2371              		.weak	HAL_TIM_ErrorCallback
 2372              		.syntax unified
 2373              		.thumb
 2374              		.thumb_func
 2376              	HAL_TIM_ErrorCallback:
 2377              		@ args = 0, pretend = 0, frame = 0
 2378              		@ frame_needed = 0, uses_anonymous_args = 0
 2379              		@ link register save eliminated.
 2380 0000 7047     		bx	lr
 2382              		.section	.text.TIM_DMAError,"ax",%progbits
 2383              		.align	1
 2384              		.global	TIM_DMAError
 2385              		.syntax unified
 2386              		.thumb
 2387              		.thumb_func
 2389              	TIM_DMAError:
 2390              		@ args = 0, pretend = 0, frame = 0
 2391              		@ frame_needed = 0, uses_anonymous_args = 0
 2392 0000 10B5     		push	{r4, lr}
 2393 0002 846B     		ldr	r4, [r0, #56]
 2394 0004 636A     		ldr	r3, [r4, #36]
 2395 0006 8342     		cmp	r3, r0
 2396 0008 0CD0     		beq	.L283
 2397 000a A36A     		ldr	r3, [r4, #40]
 2398 000c 8342     		cmp	r3, r0
 2399 000e 13D0     		beq	.L284
 2400 0010 E36A     		ldr	r3, [r4, #44]
 2401 0012 8342     		cmp	r3, r0
 2402 0014 16D0     		beq	.L285
 2403 0016 236B     		ldr	r3, [r4, #48]
ARM GAS  C:\Users\PNGUBO~1\AppData\Local\Temp\ccYA2Pp6.s 			page 41


 2404 0018 8342     		cmp	r3, r0
 2405 001a 19D0     		beq	.L286
 2406 001c 0123     		movs	r3, #1
 2407 001e 84F83D30 		strb	r3, [r4, #61]
 2408 0022 03E0     		b	.L278
 2409              	.L283:
 2410 0024 0123     		movs	r3, #1
 2411 0026 2377     		strb	r3, [r4, #28]
 2412 0028 84F83E30 		strb	r3, [r4, #62]
 2413              	.L278:
 2414 002c 2046     		mov	r0, r4
 2415 002e FFF7FEFF 		bl	HAL_TIM_ErrorCallback
 2416 0032 0023     		movs	r3, #0
 2417 0034 2377     		strb	r3, [r4, #28]
 2418 0036 10BD     		pop	{r4, pc}
 2419              	.L284:
 2420 0038 0223     		movs	r3, #2
 2421 003a 2377     		strb	r3, [r4, #28]
 2422 003c 0123     		movs	r3, #1
 2423 003e 84F83F30 		strb	r3, [r4, #63]
 2424 0042 F3E7     		b	.L278
 2425              	.L285:
 2426 0044 0423     		movs	r3, #4
 2427 0046 2377     		strb	r3, [r4, #28]
 2428 0048 0123     		movs	r3, #1
 2429 004a 84F84030 		strb	r3, [r4, #64]
 2430 004e EDE7     		b	.L278
 2431              	.L286:
 2432 0050 0823     		movs	r3, #8
 2433 0052 2377     		strb	r3, [r4, #28]
 2434 0054 0123     		movs	r3, #1
 2435 0056 84F84130 		strb	r3, [r4, #65]
 2436 005a E7E7     		b	.L278
 2438              		.section	.text.HAL_TIM_Base_GetState,"ax",%progbits
 2439              		.align	1
 2440              		.global	HAL_TIM_Base_GetState
 2441              		.syntax unified
 2442              		.thumb
 2443              		.thumb_func
 2445              	HAL_TIM_Base_GetState:
 2446              		@ args = 0, pretend = 0, frame = 0
 2447              		@ frame_needed = 0, uses_anonymous_args = 0
 2448              		@ link register save eliminated.
 2449 0000 90F83D00 		ldrb	r0, [r0, #61]	@ zero_extendqisi2
 2450 0004 7047     		bx	lr
 2452              		.section	.text.HAL_TIM_OC_GetState,"ax",%progbits
 2453              		.align	1
 2454              		.global	HAL_TIM_OC_GetState
 2455              		.syntax unified
 2456              		.thumb
 2457              		.thumb_func
 2459              	HAL_TIM_OC_GetState:
 2460              		@ args = 0, pretend = 0, frame = 0
 2461              		@ frame_needed = 0, uses_anonymous_args = 0
 2462              		@ link register save eliminated.
 2463 0000 90F83D00 		ldrb	r0, [r0, #61]	@ zero_extendqisi2
 2464 0004 7047     		bx	lr
ARM GAS  C:\Users\PNGUBO~1\AppData\Local\Temp\ccYA2Pp6.s 			page 42


 2466              		.section	.text.HAL_TIM_PWM_GetState,"ax",%progbits
 2467              		.align	1
 2468              		.global	HAL_TIM_PWM_GetState
 2469              		.syntax unified
 2470              		.thumb
 2471              		.thumb_func
 2473              	HAL_TIM_PWM_GetState:
 2474              		@ args = 0, pretend = 0, frame = 0
 2475              		@ frame_needed = 0, uses_anonymous_args = 0
 2476              		@ link register save eliminated.
 2477 0000 90F83D00 		ldrb	r0, [r0, #61]	@ zero_extendqisi2
 2478 0004 7047     		bx	lr
 2480              		.section	.text.HAL_TIM_IC_GetState,"ax",%progbits
 2481              		.align	1
 2482              		.global	HAL_TIM_IC_GetState
 2483              		.syntax unified
 2484              		.thumb
 2485              		.thumb_func
 2487              	HAL_TIM_IC_GetState:
 2488              		@ args = 0, pretend = 0, frame = 0
 2489              		@ frame_needed = 0, uses_anonymous_args = 0
 2490              		@ link register save eliminated.
 2491 0000 90F83D00 		ldrb	r0, [r0, #61]	@ zero_extendqisi2
 2492 0004 7047     		bx	lr
 2494              		.section	.text.HAL_TIM_OnePulse_GetState,"ax",%progbits
 2495              		.align	1
 2496              		.global	HAL_TIM_OnePulse_GetState
 2497              		.syntax unified
 2498              		.thumb
 2499              		.thumb_func
 2501              	HAL_TIM_OnePulse_GetState:
 2502              		@ args = 0, pretend = 0, frame = 0
 2503              		@ frame_needed = 0, uses_anonymous_args = 0
 2504              		@ link register save eliminated.
 2505 0000 90F83D00 		ldrb	r0, [r0, #61]	@ zero_extendqisi2
 2506 0004 7047     		bx	lr
 2508              		.section	.text.HAL_TIM_Encoder_GetState,"ax",%progbits
 2509              		.align	1
 2510              		.global	HAL_TIM_Encoder_GetState
 2511              		.syntax unified
 2512              		.thumb
 2513              		.thumb_func
 2515              	HAL_TIM_Encoder_GetState:
 2516              		@ args = 0, pretend = 0, frame = 0
 2517              		@ frame_needed = 0, uses_anonymous_args = 0
 2518              		@ link register save eliminated.
 2519 0000 90F83D00 		ldrb	r0, [r0, #61]	@ zero_extendqisi2
 2520 0004 7047     		bx	lr
 2522              		.section	.text.HAL_TIM_GetActiveChannel,"ax",%progbits
 2523              		.align	1
 2524              		.global	HAL_TIM_GetActiveChannel
 2525              		.syntax unified
 2526              		.thumb
 2527              		.thumb_func
 2529              	HAL_TIM_GetActiveChannel:
 2530              		@ args = 0, pretend = 0, frame = 0
 2531              		@ frame_needed = 0, uses_anonymous_args = 0
ARM GAS  C:\Users\PNGUBO~1\AppData\Local\Temp\ccYA2Pp6.s 			page 43


 2532              		@ link register save eliminated.
 2533 0000 007F     		ldrb	r0, [r0, #28]	@ zero_extendqisi2
 2534 0002 7047     		bx	lr
 2536              		.section	.text.HAL_TIM_GetChannelState,"ax",%progbits
 2537              		.align	1
 2538              		.global	HAL_TIM_GetChannelState
 2539              		.syntax unified
 2540              		.thumb
 2541              		.thumb_func
 2543              	HAL_TIM_GetChannelState:
 2544              		@ args = 0, pretend = 0, frame = 0
 2545              		@ frame_needed = 0, uses_anonymous_args = 0
 2546              		@ link register save eliminated.
 2547 0000 19B9     		cbnz	r1, .L295
 2548 0002 90F83E00 		ldrb	r0, [r0, #62]	@ zero_extendqisi2
 2549 0006 C0B2     		uxtb	r0, r0
 2550 0008 7047     		bx	lr
 2551              	.L295:
 2552 000a 0429     		cmp	r1, #4
 2553 000c 05D0     		beq	.L299
 2554 000e 0829     		cmp	r1, #8
 2555 0010 07D0     		beq	.L300
 2556 0012 90F84100 		ldrb	r0, [r0, #65]	@ zero_extendqisi2
 2557 0016 C0B2     		uxtb	r0, r0
 2558 0018 7047     		bx	lr
 2559              	.L299:
 2560 001a 90F83F00 		ldrb	r0, [r0, #63]	@ zero_extendqisi2
 2561 001e C0B2     		uxtb	r0, r0
 2562 0020 7047     		bx	lr
 2563              	.L300:
 2564 0022 90F84000 		ldrb	r0, [r0, #64]	@ zero_extendqisi2
 2565 0026 C0B2     		uxtb	r0, r0
 2566 0028 7047     		bx	lr
 2568              		.section	.text.HAL_TIM_DMABurstState,"ax",%progbits
 2569              		.align	1
 2570              		.global	HAL_TIM_DMABurstState
 2571              		.syntax unified
 2572              		.thumb
 2573              		.thumb_func
 2575              	HAL_TIM_DMABurstState:
 2576              		@ args = 0, pretend = 0, frame = 0
 2577              		@ frame_needed = 0, uses_anonymous_args = 0
 2578              		@ link register save eliminated.
 2579 0000 90F84600 		ldrb	r0, [r0, #70]	@ zero_extendqisi2
 2580 0004 7047     		bx	lr
 2582              		.section	.text.TIM_Base_SetConfig,"ax",%progbits
 2583              		.align	1
 2584              		.global	TIM_Base_SetConfig
 2585              		.syntax unified
 2586              		.thumb
 2587              		.thumb_func
 2589              	TIM_Base_SetConfig:
 2590              		@ args = 0, pretend = 0, frame = 0
 2591              		@ frame_needed = 0, uses_anonymous_args = 0
 2592              		@ link register save eliminated.
 2593 0000 0368     		ldr	r3, [r0]
 2594 0002 324A     		ldr	r2, .L309
ARM GAS  C:\Users\PNGUBO~1\AppData\Local\Temp\ccYA2Pp6.s 			page 44


 2595 0004 9042     		cmp	r0, r2
 2596 0006 12D0     		beq	.L303
 2597 0008 B0F1804F 		cmp	r0, #1073741824
 2598 000c 0FD0     		beq	.L303
 2599 000e A2F57C42 		sub	r2, r2, #64512
 2600 0012 9042     		cmp	r0, r2
 2601 0014 0BD0     		beq	.L303
 2602 0016 02F58062 		add	r2, r2, #1024
 2603 001a 9042     		cmp	r0, r2
 2604 001c 07D0     		beq	.L303
 2605 001e 02F58062 		add	r2, r2, #1024
 2606 0022 9042     		cmp	r0, r2
 2607 0024 03D0     		beq	.L303
 2608 0026 02F57842 		add	r2, r2, #63488
 2609 002a 9042     		cmp	r0, r2
 2610 002c 03D1     		bne	.L304
 2611              	.L303:
 2612 002e 23F07003 		bic	r3, r3, #112
 2613 0032 4A68     		ldr	r2, [r1, #4]
 2614 0034 1343     		orrs	r3, r3, r2
 2615              	.L304:
 2616 0036 254A     		ldr	r2, .L309
 2617 0038 9042     		cmp	r0, r2
 2618 003a 2AD0     		beq	.L305
 2619 003c B0F1804F 		cmp	r0, #1073741824
 2620 0040 27D0     		beq	.L305
 2621 0042 A2F57C42 		sub	r2, r2, #64512
 2622 0046 9042     		cmp	r0, r2
 2623 0048 23D0     		beq	.L305
 2624 004a 02F58062 		add	r2, r2, #1024
 2625 004e 9042     		cmp	r0, r2
 2626 0050 1FD0     		beq	.L305
 2627 0052 02F58062 		add	r2, r2, #1024
 2628 0056 9042     		cmp	r0, r2
 2629 0058 1BD0     		beq	.L305
 2630 005a 02F57842 		add	r2, r2, #63488
 2631 005e 9042     		cmp	r0, r2
 2632 0060 17D0     		beq	.L305
 2633 0062 02F57052 		add	r2, r2, #15360
 2634 0066 9042     		cmp	r0, r2
 2635 0068 13D0     		beq	.L305
 2636 006a 02F58062 		add	r2, r2, #1024
 2637 006e 9042     		cmp	r0, r2
 2638 0070 0FD0     		beq	.L305
 2639 0072 02F58062 		add	r2, r2, #1024
 2640 0076 9042     		cmp	r0, r2
 2641 0078 0BD0     		beq	.L305
 2642 007a A2F59832 		sub	r2, r2, #77824
 2643 007e 9042     		cmp	r0, r2
 2644 0080 07D0     		beq	.L305
 2645 0082 02F58062 		add	r2, r2, #1024
 2646 0086 9042     		cmp	r0, r2
 2647 0088 03D0     		beq	.L305
 2648 008a 02F58062 		add	r2, r2, #1024
 2649 008e 9042     		cmp	r0, r2
 2650 0090 03D1     		bne	.L306
 2651              	.L305:
ARM GAS  C:\Users\PNGUBO~1\AppData\Local\Temp\ccYA2Pp6.s 			page 45


 2652 0092 23F44073 		bic	r3, r3, #768
 2653 0096 CA68     		ldr	r2, [r1, #12]
 2654 0098 1343     		orrs	r3, r3, r2
 2655              	.L306:
 2656 009a 23F08003 		bic	r3, r3, #128
 2657 009e 4A69     		ldr	r2, [r1, #20]
 2658 00a0 1343     		orrs	r3, r3, r2
 2659 00a2 8A68     		ldr	r2, [r1, #8]
 2660 00a4 C262     		str	r2, [r0, #44]
 2661 00a6 0A68     		ldr	r2, [r1]
 2662 00a8 8262     		str	r2, [r0, #40]
 2663 00aa 084A     		ldr	r2, .L309
 2664 00ac 9042     		cmp	r0, r2
 2665 00ae 03D0     		beq	.L307
 2666 00b0 02F58062 		add	r2, r2, #1024
 2667 00b4 9042     		cmp	r0, r2
 2668 00b6 01D1     		bne	.L308
 2669              	.L307:
 2670 00b8 0A69     		ldr	r2, [r1, #16]
 2671 00ba 0263     		str	r2, [r0, #48]
 2672              	.L308:
 2673 00bc 0268     		ldr	r2, [r0]
 2674 00be 42F00402 		orr	r2, r2, #4
 2675 00c2 0260     		str	r2, [r0]
 2676 00c4 0122     		movs	r2, #1
 2677 00c6 4261     		str	r2, [r0, #20]
 2678 00c8 0360     		str	r3, [r0]
 2679 00ca 7047     		bx	lr
 2680              	.L310:
 2681              		.align	2
 2682              	.L309:
 2683 00cc 00000140 		.word	1073807360
 2685              		.section	.text.HAL_TIM_Base_Init,"ax",%progbits
 2686              		.align	1
 2687              		.global	HAL_TIM_Base_Init
 2688              		.syntax unified
 2689              		.thumb
 2690              		.thumb_func
 2692              	HAL_TIM_Base_Init:
 2693              		@ args = 0, pretend = 0, frame = 0
 2694              		@ frame_needed = 0, uses_anonymous_args = 0
 2695 0000 40B3     		cbz	r0, .L314
 2696 0002 10B5     		push	{r4, lr}
 2697 0004 0446     		mov	r4, r0
 2698 0006 90F83D30 		ldrb	r3, [r0, #61]	@ zero_extendqisi2
 2699 000a F3B1     		cbz	r3, .L319
 2700              	.L313:
 2701 000c 0223     		movs	r3, #2
 2702 000e 84F83D30 		strb	r3, [r4, #61]
 2703 0012 2146     		mov	r1, r4
 2704 0014 51F8040B 		ldr	r0, [r1], #4
 2705 0018 FFF7FEFF 		bl	TIM_Base_SetConfig
 2706 001c 0123     		movs	r3, #1
 2707 001e 84F84630 		strb	r3, [r4, #70]
 2708 0022 84F83E30 		strb	r3, [r4, #62]
 2709 0026 84F83F30 		strb	r3, [r4, #63]
 2710 002a 84F84030 		strb	r3, [r4, #64]
ARM GAS  C:\Users\PNGUBO~1\AppData\Local\Temp\ccYA2Pp6.s 			page 46


 2711 002e 84F84130 		strb	r3, [r4, #65]
 2712 0032 84F84230 		strb	r3, [r4, #66]
 2713 0036 84F84330 		strb	r3, [r4, #67]
 2714 003a 84F84430 		strb	r3, [r4, #68]
 2715 003e 84F84530 		strb	r3, [r4, #69]
 2716 0042 84F83D30 		strb	r3, [r4, #61]
 2717 0046 0020     		movs	r0, #0
 2718 0048 10BD     		pop	{r4, pc}
 2719              	.L319:
 2720 004a 80F83C30 		strb	r3, [r0, #60]
 2721 004e FFF7FEFF 		bl	HAL_TIM_Base_MspInit
 2722 0052 DBE7     		b	.L313
 2723              	.L314:
 2724 0054 0120     		movs	r0, #1
 2725 0056 7047     		bx	lr
 2727              		.section	.text.HAL_TIM_OC_Init,"ax",%progbits
 2728              		.align	1
 2729              		.global	HAL_TIM_OC_Init
 2730              		.syntax unified
 2731              		.thumb
 2732              		.thumb_func
 2734              	HAL_TIM_OC_Init:
 2735              		@ args = 0, pretend = 0, frame = 0
 2736              		@ frame_needed = 0, uses_anonymous_args = 0
 2737 0000 40B3     		cbz	r0, .L323
 2738 0002 10B5     		push	{r4, lr}
 2739 0004 0446     		mov	r4, r0
 2740 0006 90F83D30 		ldrb	r3, [r0, #61]	@ zero_extendqisi2
 2741 000a F3B1     		cbz	r3, .L328
 2742              	.L322:
 2743 000c 0223     		movs	r3, #2
 2744 000e 84F83D30 		strb	r3, [r4, #61]
 2745 0012 2146     		mov	r1, r4
 2746 0014 51F8040B 		ldr	r0, [r1], #4
 2747 0018 FFF7FEFF 		bl	TIM_Base_SetConfig
 2748 001c 0123     		movs	r3, #1
 2749 001e 84F84630 		strb	r3, [r4, #70]
 2750 0022 84F83E30 		strb	r3, [r4, #62]
 2751 0026 84F83F30 		strb	r3, [r4, #63]
 2752 002a 84F84030 		strb	r3, [r4, #64]
 2753 002e 84F84130 		strb	r3, [r4, #65]
 2754 0032 84F84230 		strb	r3, [r4, #66]
 2755 0036 84F84330 		strb	r3, [r4, #67]
 2756 003a 84F84430 		strb	r3, [r4, #68]
 2757 003e 84F84530 		strb	r3, [r4, #69]
 2758 0042 84F83D30 		strb	r3, [r4, #61]
 2759 0046 0020     		movs	r0, #0
 2760 0048 10BD     		pop	{r4, pc}
 2761              	.L328:
 2762 004a 80F83C30 		strb	r3, [r0, #60]
 2763 004e FFF7FEFF 		bl	HAL_TIM_OC_MspInit
 2764 0052 DBE7     		b	.L322
 2765              	.L323:
 2766 0054 0120     		movs	r0, #1
 2767 0056 7047     		bx	lr
 2769              		.section	.text.HAL_TIM_PWM_Init,"ax",%progbits
 2770              		.align	1
ARM GAS  C:\Users\PNGUBO~1\AppData\Local\Temp\ccYA2Pp6.s 			page 47


 2771              		.global	HAL_TIM_PWM_Init
 2772              		.syntax unified
 2773              		.thumb
 2774              		.thumb_func
 2776              	HAL_TIM_PWM_Init:
 2777              		@ args = 0, pretend = 0, frame = 0
 2778              		@ frame_needed = 0, uses_anonymous_args = 0
 2779 0000 40B3     		cbz	r0, .L332
 2780 0002 10B5     		push	{r4, lr}
 2781 0004 0446     		mov	r4, r0
 2782 0006 90F83D30 		ldrb	r3, [r0, #61]	@ zero_extendqisi2
 2783 000a F3B1     		cbz	r3, .L337
 2784              	.L331:
 2785 000c 0223     		movs	r3, #2
 2786 000e 84F83D30 		strb	r3, [r4, #61]
 2787 0012 2146     		mov	r1, r4
 2788 0014 51F8040B 		ldr	r0, [r1], #4
 2789 0018 FFF7FEFF 		bl	TIM_Base_SetConfig
 2790 001c 0123     		movs	r3, #1
 2791 001e 84F84630 		strb	r3, [r4, #70]
 2792 0022 84F83E30 		strb	r3, [r4, #62]
 2793 0026 84F83F30 		strb	r3, [r4, #63]
 2794 002a 84F84030 		strb	r3, [r4, #64]
 2795 002e 84F84130 		strb	r3, [r4, #65]
 2796 0032 84F84230 		strb	r3, [r4, #66]
 2797 0036 84F84330 		strb	r3, [r4, #67]
 2798 003a 84F84430 		strb	r3, [r4, #68]
 2799 003e 84F84530 		strb	r3, [r4, #69]
 2800 0042 84F83D30 		strb	r3, [r4, #61]
 2801 0046 0020     		movs	r0, #0
 2802 0048 10BD     		pop	{r4, pc}
 2803              	.L337:
 2804 004a 80F83C30 		strb	r3, [r0, #60]
 2805 004e FFF7FEFF 		bl	HAL_TIM_PWM_MspInit
 2806 0052 DBE7     		b	.L331
 2807              	.L332:
 2808 0054 0120     		movs	r0, #1
 2809 0056 7047     		bx	lr
 2811              		.section	.text.HAL_TIM_IC_Init,"ax",%progbits
 2812              		.align	1
 2813              		.global	HAL_TIM_IC_Init
 2814              		.syntax unified
 2815              		.thumb
 2816              		.thumb_func
 2818              	HAL_TIM_IC_Init:
 2819              		@ args = 0, pretend = 0, frame = 0
 2820              		@ frame_needed = 0, uses_anonymous_args = 0
 2821 0000 40B3     		cbz	r0, .L341
 2822 0002 10B5     		push	{r4, lr}
 2823 0004 0446     		mov	r4, r0
 2824 0006 90F83D30 		ldrb	r3, [r0, #61]	@ zero_extendqisi2
 2825 000a F3B1     		cbz	r3, .L346
 2826              	.L340:
 2827 000c 0223     		movs	r3, #2
 2828 000e 84F83D30 		strb	r3, [r4, #61]
 2829 0012 2146     		mov	r1, r4
 2830 0014 51F8040B 		ldr	r0, [r1], #4
ARM GAS  C:\Users\PNGUBO~1\AppData\Local\Temp\ccYA2Pp6.s 			page 48


 2831 0018 FFF7FEFF 		bl	TIM_Base_SetConfig
 2832 001c 0123     		movs	r3, #1
 2833 001e 84F84630 		strb	r3, [r4, #70]
 2834 0022 84F83E30 		strb	r3, [r4, #62]
 2835 0026 84F83F30 		strb	r3, [r4, #63]
 2836 002a 84F84030 		strb	r3, [r4, #64]
 2837 002e 84F84130 		strb	r3, [r4, #65]
 2838 0032 84F84230 		strb	r3, [r4, #66]
 2839 0036 84F84330 		strb	r3, [r4, #67]
 2840 003a 84F84430 		strb	r3, [r4, #68]
 2841 003e 84F84530 		strb	r3, [r4, #69]
 2842 0042 84F83D30 		strb	r3, [r4, #61]
 2843 0046 0020     		movs	r0, #0
 2844 0048 10BD     		pop	{r4, pc}
 2845              	.L346:
 2846 004a 80F83C30 		strb	r3, [r0, #60]
 2847 004e FFF7FEFF 		bl	HAL_TIM_IC_MspInit
 2848 0052 DBE7     		b	.L340
 2849              	.L341:
 2850 0054 0120     		movs	r0, #1
 2851 0056 7047     		bx	lr
 2853              		.section	.text.HAL_TIM_OnePulse_Init,"ax",%progbits
 2854              		.align	1
 2855              		.global	HAL_TIM_OnePulse_Init
 2856              		.syntax unified
 2857              		.thumb
 2858              		.thumb_func
 2860              	HAL_TIM_OnePulse_Init:
 2861              		@ args = 0, pretend = 0, frame = 0
 2862              		@ frame_needed = 0, uses_anonymous_args = 0
 2863 0000 50B3     		cbz	r0, .L350
 2864 0002 38B5     		push	{r3, r4, r5, lr}
 2865 0004 0D46     		mov	r5, r1
 2866 0006 0446     		mov	r4, r0
 2867 0008 90F83D30 		ldrb	r3, [r0, #61]	@ zero_extendqisi2
 2868 000c FBB1     		cbz	r3, .L355
 2869              	.L349:
 2870 000e 0223     		movs	r3, #2
 2871 0010 84F83D30 		strb	r3, [r4, #61]
 2872 0014 2146     		mov	r1, r4
 2873 0016 51F8040B 		ldr	r0, [r1], #4
 2874 001a FFF7FEFF 		bl	TIM_Base_SetConfig
 2875 001e 2268     		ldr	r2, [r4]
 2876 0020 1368     		ldr	r3, [r2]
 2877 0022 23F00803 		bic	r3, r3, #8
 2878 0026 1360     		str	r3, [r2]
 2879 0028 2268     		ldr	r2, [r4]
 2880 002a 1368     		ldr	r3, [r2]
 2881 002c 2B43     		orrs	r3, r3, r5
 2882 002e 1360     		str	r3, [r2]
 2883 0030 0123     		movs	r3, #1
 2884 0032 84F84630 		strb	r3, [r4, #70]
 2885 0036 84F83E30 		strb	r3, [r4, #62]
 2886 003a 84F83F30 		strb	r3, [r4, #63]
 2887 003e 84F84230 		strb	r3, [r4, #66]
 2888 0042 84F84330 		strb	r3, [r4, #67]
 2889 0046 84F83D30 		strb	r3, [r4, #61]
ARM GAS  C:\Users\PNGUBO~1\AppData\Local\Temp\ccYA2Pp6.s 			page 49


 2890 004a 0020     		movs	r0, #0
 2891 004c 38BD     		pop	{r3, r4, r5, pc}
 2892              	.L355:
 2893 004e 80F83C30 		strb	r3, [r0, #60]
 2894 0052 FFF7FEFF 		bl	HAL_TIM_OnePulse_MspInit
 2895 0056 DAE7     		b	.L349
 2896              	.L350:
 2897 0058 0120     		movs	r0, #1
 2898 005a 7047     		bx	lr
 2900              		.section	.text.HAL_TIM_Encoder_Init,"ax",%progbits
 2901              		.align	1
 2902              		.global	HAL_TIM_Encoder_Init
 2903              		.syntax unified
 2904              		.thumb
 2905              		.thumb_func
 2907              	HAL_TIM_Encoder_Init:
 2908              		@ args = 0, pretend = 0, frame = 0
 2909              		@ frame_needed = 0, uses_anonymous_args = 0
 2910 0000 0028     		cmp	r0, #0
 2911 0002 53D0     		beq	.L359
 2912 0004 F8B5     		push	{r3, r4, r5, r6, r7, lr}
 2913 0006 0D46     		mov	r5, r1
 2914 0008 0446     		mov	r4, r0
 2915 000a 90F83D30 		ldrb	r3, [r0, #61]	@ zero_extendqisi2
 2916 000e 002B     		cmp	r3, #0
 2917 0010 47D0     		beq	.L364
 2918              	.L358:
 2919 0012 0223     		movs	r3, #2
 2920 0014 84F83D30 		strb	r3, [r4, #61]
 2921 0018 2268     		ldr	r2, [r4]
 2922 001a 9368     		ldr	r3, [r2, #8]
 2923 001c 23F48043 		bic	r3, r3, #16384
 2924 0020 23F00703 		bic	r3, r3, #7
 2925 0024 9360     		str	r3, [r2, #8]
 2926 0026 2146     		mov	r1, r4
 2927 0028 51F8040B 		ldr	r0, [r1], #4
 2928 002c FFF7FEFF 		bl	TIM_Base_SetConfig
 2929 0030 2168     		ldr	r1, [r4]
 2930 0032 8B68     		ldr	r3, [r1, #8]
 2931 0034 8A69     		ldr	r2, [r1, #24]
 2932 0036 0E6A     		ldr	r6, [r1, #32]
 2933 0038 2868     		ldr	r0, [r5]
 2934 003a 1843     		orrs	r0, r0, r3
 2935 003c 22F44072 		bic	r2, r2, #768
 2936 0040 22F00302 		bic	r2, r2, #3
 2937 0044 AB68     		ldr	r3, [r5, #8]
 2938 0046 AF69     		ldr	r7, [r5, #24]
 2939 0048 43EA0723 		orr	r3, r3, r7, lsl #8
 2940 004c 1343     		orrs	r3, r3, r2
 2941 004e 23F47C43 		bic	r3, r3, #64512
 2942 0052 23F0FC03 		bic	r3, r3, #252
 2943 0056 EA68     		ldr	r2, [r5, #12]
 2944 0058 EF69     		ldr	r7, [r5, #28]
 2945 005a 42EA0722 		orr	r2, r2, r7, lsl #8
 2946 005e 1A43     		orrs	r2, r2, r3
 2947 0060 2B6A     		ldr	r3, [r5, #32]
 2948 0062 1B03     		lsls	r3, r3, #12
ARM GAS  C:\Users\PNGUBO~1\AppData\Local\Temp\ccYA2Pp6.s 			page 50


 2949 0064 2F69     		ldr	r7, [r5, #16]
 2950 0066 43EA0713 		orr	r3, r3, r7, lsl #4
 2951 006a 1343     		orrs	r3, r3, r2
 2952 006c 26F0AA06 		bic	r6, r6, #170
 2953 0070 6A68     		ldr	r2, [r5, #4]
 2954 0072 6D69     		ldr	r5, [r5, #20]
 2955 0074 42EA0512 		orr	r2, r2, r5, lsl #4
 2956 0078 3243     		orrs	r2, r2, r6
 2957 007a 8860     		str	r0, [r1, #8]
 2958 007c 2168     		ldr	r1, [r4]
 2959 007e 8B61     		str	r3, [r1, #24]
 2960 0080 2368     		ldr	r3, [r4]
 2961 0082 1A62     		str	r2, [r3, #32]
 2962 0084 0123     		movs	r3, #1
 2963 0086 84F84630 		strb	r3, [r4, #70]
 2964 008a 84F83E30 		strb	r3, [r4, #62]
 2965 008e 84F83F30 		strb	r3, [r4, #63]
 2966 0092 84F84230 		strb	r3, [r4, #66]
 2967 0096 84F84330 		strb	r3, [r4, #67]
 2968 009a 84F83D30 		strb	r3, [r4, #61]
 2969 009e 0020     		movs	r0, #0
 2970 00a0 F8BD     		pop	{r3, r4, r5, r6, r7, pc}
 2971              	.L364:
 2972 00a2 80F83C30 		strb	r3, [r0, #60]
 2973 00a6 FFF7FEFF 		bl	HAL_TIM_Encoder_MspInit
 2974 00aa B2E7     		b	.L358
 2975              	.L359:
 2976 00ac 0120     		movs	r0, #1
 2977 00ae 7047     		bx	lr
 2979              		.section	.text.TIM_OC2_SetConfig,"ax",%progbits
 2980              		.align	1
 2981              		.global	TIM_OC2_SetConfig
 2982              		.syntax unified
 2983              		.thumb
 2984              		.thumb_func
 2986              	TIM_OC2_SetConfig:
 2987              		@ args = 0, pretend = 0, frame = 0
 2988              		@ frame_needed = 0, uses_anonymous_args = 0
 2989              		@ link register save eliminated.
 2990 0000 30B4     		push	{r4, r5}
 2991 0002 036A     		ldr	r3, [r0, #32]
 2992 0004 026A     		ldr	r2, [r0, #32]
 2993 0006 22F01002 		bic	r2, r2, #16
 2994 000a 0262     		str	r2, [r0, #32]
 2995 000c 4468     		ldr	r4, [r0, #4]
 2996 000e 8269     		ldr	r2, [r0, #24]
 2997 0010 22F4E642 		bic	r2, r2, #29440
 2998 0014 0D68     		ldr	r5, [r1]
 2999 0016 42EA0522 		orr	r2, r2, r5, lsl #8
 3000 001a 23F02003 		bic	r3, r3, #32
 3001 001e 8D68     		ldr	r5, [r1, #8]
 3002 0020 43EA0513 		orr	r3, r3, r5, lsl #4
 3003 0024 114D     		ldr	r5, .L371
 3004 0026 A842     		cmp	r0, r5
 3005 0028 03D0     		beq	.L366
 3006 002a 05F58065 		add	r5, r5, #1024
 3007 002e A842     		cmp	r0, r5
ARM GAS  C:\Users\PNGUBO~1\AppData\Local\Temp\ccYA2Pp6.s 			page 51


 3008 0030 06D1     		bne	.L367
 3009              	.L366:
 3010 0032 23F08003 		bic	r3, r3, #128
 3011 0036 CD68     		ldr	r5, [r1, #12]
 3012 0038 43EA0513 		orr	r3, r3, r5, lsl #4
 3013 003c 23F04003 		bic	r3, r3, #64
 3014              	.L367:
 3015 0040 0A4D     		ldr	r5, .L371
 3016 0042 A842     		cmp	r0, r5
 3017 0044 03D0     		beq	.L368
 3018 0046 05F58065 		add	r5, r5, #1024
 3019 004a A842     		cmp	r0, r5
 3020 004c 07D1     		bne	.L369
 3021              	.L368:
 3022 004e 24F44064 		bic	r4, r4, #3072
 3023 0052 4D69     		ldr	r5, [r1, #20]
 3024 0054 44EA8504 		orr	r4, r4, r5, lsl #2
 3025 0058 8D69     		ldr	r5, [r1, #24]
 3026 005a 44EA8504 		orr	r4, r4, r5, lsl #2
 3027              	.L369:
 3028 005e 4460     		str	r4, [r0, #4]
 3029 0060 8261     		str	r2, [r0, #24]
 3030 0062 4A68     		ldr	r2, [r1, #4]
 3031 0064 8263     		str	r2, [r0, #56]
 3032 0066 0362     		str	r3, [r0, #32]
 3033 0068 30BC     		pop	{r4, r5}
 3034 006a 7047     		bx	lr
 3035              	.L372:
 3036              		.align	2
 3037              	.L371:
 3038 006c 00000140 		.word	1073807360
 3040              		.section	.text.HAL_TIM_OC_ConfigChannel,"ax",%progbits
 3041              		.align	1
 3042              		.global	HAL_TIM_OC_ConfigChannel
 3043              		.syntax unified
 3044              		.thumb
 3045              		.thumb_func
 3047              	HAL_TIM_OC_ConfigChannel:
 3048              		@ args = 0, pretend = 0, frame = 0
 3049              		@ frame_needed = 0, uses_anonymous_args = 0
 3050 0000 90F83C30 		ldrb	r3, [r0, #60]	@ zero_extendqisi2
 3051 0004 012B     		cmp	r3, #1
 3052 0006 28D0     		beq	.L381
 3053 0008 10B5     		push	{r4, lr}
 3054 000a 0446     		mov	r4, r0
 3055 000c 0123     		movs	r3, #1
 3056 000e 80F83C30 		strb	r3, [r0, #60]
 3057 0012 0C2A     		cmp	r2, #12
 3058 0014 1CD8     		bhi	.L382
 3059 0016 DFE802F0 		tbb	[pc, r2]
 3060              	.L377:
 3061 001a 07       		.byte	(.L380-.L377)/2
 3062 001b 1B       		.byte	(.L382-.L377)/2
 3063 001c 1B       		.byte	(.L382-.L377)/2
 3064 001d 1B       		.byte	(.L382-.L377)/2
 3065 001e 0C       		.byte	(.L379-.L377)/2
 3066 001f 1B       		.byte	(.L382-.L377)/2
ARM GAS  C:\Users\PNGUBO~1\AppData\Local\Temp\ccYA2Pp6.s 			page 52


 3067 0020 1B       		.byte	(.L382-.L377)/2
 3068 0021 1B       		.byte	(.L382-.L377)/2
 3069 0022 11       		.byte	(.L378-.L377)/2
 3070 0023 1B       		.byte	(.L382-.L377)/2
 3071 0024 1B       		.byte	(.L382-.L377)/2
 3072 0025 1B       		.byte	(.L382-.L377)/2
 3073 0026 16       		.byte	(.L376-.L377)/2
 3074 0027 00       		.p2align 1
 3075              	.L380:
 3076 0028 0068     		ldr	r0, [r0]
 3077 002a FFF7FEFF 		bl	TIM_OC1_SetConfig
 3078 002e 0020     		movs	r0, #0
 3079 0030 0FE0     		b	.L375
 3080              	.L379:
 3081 0032 0068     		ldr	r0, [r0]
 3082 0034 FFF7FEFF 		bl	TIM_OC2_SetConfig
 3083 0038 0020     		movs	r0, #0
 3084 003a 0AE0     		b	.L375
 3085              	.L378:
 3086 003c 0068     		ldr	r0, [r0]
 3087 003e FFF7FEFF 		bl	TIM_OC3_SetConfig
 3088 0042 0020     		movs	r0, #0
 3089 0044 05E0     		b	.L375
 3090              	.L376:
 3091 0046 0068     		ldr	r0, [r0]
 3092 0048 FFF7FEFF 		bl	TIM_OC4_SetConfig
 3093 004c 0020     		movs	r0, #0
 3094 004e 00E0     		b	.L375
 3095              	.L382:
 3096 0050 0120     		movs	r0, #1
 3097              	.L375:
 3098 0052 0023     		movs	r3, #0
 3099 0054 84F83C30 		strb	r3, [r4, #60]
 3100 0058 10BD     		pop	{r4, pc}
 3101              	.L381:
 3102 005a 0220     		movs	r0, #2
 3103 005c 7047     		bx	lr
 3105              		.section	.text.HAL_TIM_PWM_ConfigChannel,"ax",%progbits
 3106              		.align	1
 3107              		.global	HAL_TIM_PWM_ConfigChannel
 3108              		.syntax unified
 3109              		.thumb
 3110              		.thumb_func
 3112              	HAL_TIM_PWM_ConfigChannel:
 3113              		@ args = 0, pretend = 0, frame = 0
 3114              		@ frame_needed = 0, uses_anonymous_args = 0
 3115 0000 38B5     		push	{r3, r4, r5, lr}
 3116 0002 90F83C30 		ldrb	r3, [r0, #60]	@ zero_extendqisi2
 3117 0006 012B     		cmp	r3, #1
 3118 0008 66D0     		beq	.L395
 3119 000a 0446     		mov	r4, r0
 3120 000c 0D46     		mov	r5, r1
 3121 000e 0123     		movs	r3, #1
 3122 0010 80F83C30 		strb	r3, [r0, #60]
 3123 0014 0C2A     		cmp	r2, #12
 3124 0016 5AD8     		bhi	.L396
 3125 0018 DFE802F0 		tbb	[pc, r2]
ARM GAS  C:\Users\PNGUBO~1\AppData\Local\Temp\ccYA2Pp6.s 			page 53


 3126              	.L391:
 3127 001c 07       		.byte	(.L394-.L391)/2
 3128 001d 59       		.byte	(.L396-.L391)/2
 3129 001e 59       		.byte	(.L396-.L391)/2
 3130 001f 59       		.byte	(.L396-.L391)/2
 3131 0020 1B       		.byte	(.L393-.L391)/2
 3132 0021 59       		.byte	(.L396-.L391)/2
 3133 0022 59       		.byte	(.L396-.L391)/2
 3134 0023 59       		.byte	(.L396-.L391)/2
 3135 0024 30       		.byte	(.L392-.L391)/2
 3136 0025 59       		.byte	(.L396-.L391)/2
 3137 0026 59       		.byte	(.L396-.L391)/2
 3138 0027 59       		.byte	(.L396-.L391)/2
 3139 0028 44       		.byte	(.L390-.L391)/2
 3140 0029 00       		.p2align 1
 3141              	.L394:
 3142 002a 0068     		ldr	r0, [r0]
 3143 002c FFF7FEFF 		bl	TIM_OC1_SetConfig
 3144 0030 2268     		ldr	r2, [r4]
 3145 0032 9369     		ldr	r3, [r2, #24]
 3146 0034 43F00803 		orr	r3, r3, #8
 3147 0038 9361     		str	r3, [r2, #24]
 3148 003a 2268     		ldr	r2, [r4]
 3149 003c 9369     		ldr	r3, [r2, #24]
 3150 003e 23F00403 		bic	r3, r3, #4
 3151 0042 9361     		str	r3, [r2, #24]
 3152 0044 2268     		ldr	r2, [r4]
 3153 0046 9369     		ldr	r3, [r2, #24]
 3154 0048 2969     		ldr	r1, [r5, #16]
 3155 004a 0B43     		orrs	r3, r3, r1
 3156 004c 9361     		str	r3, [r2, #24]
 3157 004e 0020     		movs	r0, #0
 3158 0050 3EE0     		b	.L389
 3159              	.L393:
 3160 0052 0068     		ldr	r0, [r0]
 3161 0054 FFF7FEFF 		bl	TIM_OC2_SetConfig
 3162 0058 2268     		ldr	r2, [r4]
 3163 005a 9369     		ldr	r3, [r2, #24]
 3164 005c 43F40063 		orr	r3, r3, #2048
 3165 0060 9361     		str	r3, [r2, #24]
 3166 0062 2268     		ldr	r2, [r4]
 3167 0064 9369     		ldr	r3, [r2, #24]
 3168 0066 23F48063 		bic	r3, r3, #1024
 3169 006a 9361     		str	r3, [r2, #24]
 3170 006c 2268     		ldr	r2, [r4]
 3171 006e 9369     		ldr	r3, [r2, #24]
 3172 0070 2969     		ldr	r1, [r5, #16]
 3173 0072 43EA0123 		orr	r3, r3, r1, lsl #8
 3174 0076 9361     		str	r3, [r2, #24]
 3175 0078 0020     		movs	r0, #0
 3176 007a 29E0     		b	.L389
 3177              	.L392:
 3178 007c 0068     		ldr	r0, [r0]
 3179 007e FFF7FEFF 		bl	TIM_OC3_SetConfig
 3180 0082 2268     		ldr	r2, [r4]
 3181 0084 D369     		ldr	r3, [r2, #28]
 3182 0086 43F00803 		orr	r3, r3, #8
ARM GAS  C:\Users\PNGUBO~1\AppData\Local\Temp\ccYA2Pp6.s 			page 54


 3183 008a D361     		str	r3, [r2, #28]
 3184 008c 2268     		ldr	r2, [r4]
 3185 008e D369     		ldr	r3, [r2, #28]
 3186 0090 23F00403 		bic	r3, r3, #4
 3187 0094 D361     		str	r3, [r2, #28]
 3188 0096 2268     		ldr	r2, [r4]
 3189 0098 D369     		ldr	r3, [r2, #28]
 3190 009a 2969     		ldr	r1, [r5, #16]
 3191 009c 0B43     		orrs	r3, r3, r1
 3192 009e D361     		str	r3, [r2, #28]
 3193 00a0 0020     		movs	r0, #0
 3194 00a2 15E0     		b	.L389
 3195              	.L390:
 3196 00a4 0068     		ldr	r0, [r0]
 3197 00a6 FFF7FEFF 		bl	TIM_OC4_SetConfig
 3198 00aa 2268     		ldr	r2, [r4]
 3199 00ac D369     		ldr	r3, [r2, #28]
 3200 00ae 43F40063 		orr	r3, r3, #2048
 3201 00b2 D361     		str	r3, [r2, #28]
 3202 00b4 2268     		ldr	r2, [r4]
 3203 00b6 D369     		ldr	r3, [r2, #28]
 3204 00b8 23F48063 		bic	r3, r3, #1024
 3205 00bc D361     		str	r3, [r2, #28]
 3206 00be 2268     		ldr	r2, [r4]
 3207 00c0 D369     		ldr	r3, [r2, #28]
 3208 00c2 2969     		ldr	r1, [r5, #16]
 3209 00c4 43EA0123 		orr	r3, r3, r1, lsl #8
 3210 00c8 D361     		str	r3, [r2, #28]
 3211 00ca 0020     		movs	r0, #0
 3212 00cc 00E0     		b	.L389
 3213              	.L396:
 3214 00ce 0120     		movs	r0, #1
 3215              	.L389:
 3216 00d0 0023     		movs	r3, #0
 3217 00d2 84F83C30 		strb	r3, [r4, #60]
 3218              	.L388:
 3219 00d6 38BD     		pop	{r3, r4, r5, pc}
 3220              	.L395:
 3221 00d8 0220     		movs	r0, #2
 3222 00da FCE7     		b	.L388
 3224              		.section	.text.TIM_TI1_SetConfig,"ax",%progbits
 3225              		.align	1
 3226              		.global	TIM_TI1_SetConfig
 3227              		.syntax unified
 3228              		.thumb
 3229              		.thumb_func
 3231              	TIM_TI1_SetConfig:
 3232              		@ args = 0, pretend = 0, frame = 0
 3233              		@ frame_needed = 0, uses_anonymous_args = 0
 3234              		@ link register save eliminated.
 3235 0000 70B4     		push	{r4, r5, r6}
 3236 0002 9446     		mov	ip, r2
 3237 0004 066A     		ldr	r6, [r0, #32]
 3238 0006 046A     		ldr	r4, [r0, #32]
 3239 0008 24F00104 		bic	r4, r4, #1
 3240 000c 0462     		str	r4, [r0, #32]
 3241 000e 8469     		ldr	r4, [r0, #24]
ARM GAS  C:\Users\PNGUBO~1\AppData\Local\Temp\ccYA2Pp6.s 			page 55


 3242 0010 184D     		ldr	r5, .L402
 3243 0012 A842     		cmp	r0, r5
 3244 0014 1CD0     		beq	.L399
 3245 0016 B0F1804F 		cmp	r0, #1073741824
 3246 001a 19D0     		beq	.L399
 3247 001c 164A     		ldr	r2, .L402+4
 3248 001e 9042     		cmp	r0, r2
 3249 0020 16D0     		beq	.L399
 3250 0022 02F58062 		add	r2, r2, #1024
 3251 0026 9042     		cmp	r0, r2
 3252 0028 12D0     		beq	.L399
 3253 002a 02F58062 		add	r2, r2, #1024
 3254 002e 9042     		cmp	r0, r2
 3255 0030 0ED0     		beq	.L399
 3256 0032 02F57842 		add	r2, r2, #63488
 3257 0036 9042     		cmp	r0, r2
 3258 0038 0AD0     		beq	.L399
 3259 003a 02F57052 		add	r2, r2, #15360
 3260 003e 9042     		cmp	r0, r2
 3261 0040 06D0     		beq	.L399
 3262 0042 A2F59432 		sub	r2, r2, #75776
 3263 0046 9042     		cmp	r0, r2
 3264 0048 02D0     		beq	.L399
 3265 004a 44F00102 		orr	r2, r4, #1
 3266 004e 03E0     		b	.L400
 3267              	.L399:
 3268 0050 24F00302 		bic	r2, r4, #3
 3269 0054 42EA0C02 		orr	r2, r2, ip
 3270              	.L400:
 3271 0058 22F0F002 		bic	r2, r2, #240
 3272 005c 1B01     		lsls	r3, r3, #4
 3273 005e DBB2     		uxtb	r3, r3
 3274 0060 1343     		orrs	r3, r3, r2
 3275 0062 26F00A02 		bic	r2, r6, #10
 3276 0066 01F00A01 		and	r1, r1, #10
 3277 006a 1143     		orrs	r1, r1, r2
 3278 006c 8361     		str	r3, [r0, #24]
 3279 006e 0162     		str	r1, [r0, #32]
 3280 0070 70BC     		pop	{r4, r5, r6}
 3281 0072 7047     		bx	lr
 3282              	.L403:
 3283              		.align	2
 3284              	.L402:
 3285 0074 00000140 		.word	1073807360
 3286 0078 00040040 		.word	1073742848
 3288              		.section	.text.HAL_TIM_IC_ConfigChannel,"ax",%progbits
 3289              		.align	1
 3290              		.global	HAL_TIM_IC_ConfigChannel
 3291              		.syntax unified
 3292              		.thumb
 3293              		.thumb_func
 3295              	HAL_TIM_IC_ConfigChannel:
 3296              		@ args = 0, pretend = 0, frame = 0
 3297              		@ frame_needed = 0, uses_anonymous_args = 0
 3298 0000 38B5     		push	{r3, r4, r5, lr}
 3299 0002 90F83C30 		ldrb	r3, [r0, #60]	@ zero_extendqisi2
 3300 0006 012B     		cmp	r3, #1
ARM GAS  C:\Users\PNGUBO~1\AppData\Local\Temp\ccYA2Pp6.s 			page 56


 3301 0008 5ED0     		beq	.L412
 3302 000a 0446     		mov	r4, r0
 3303 000c 0D46     		mov	r5, r1
 3304 000e 0123     		movs	r3, #1
 3305 0010 80F83C30 		strb	r3, [r0, #60]
 3306 0014 0C2A     		cmp	r2, #12
 3307 0016 52D8     		bhi	.L413
 3308 0018 DFE802F0 		tbb	[pc, r2]
 3309              	.L408:
 3310 001c 07       		.byte	(.L411-.L408)/2
 3311 001d 51       		.byte	(.L413-.L408)/2
 3312 001e 51       		.byte	(.L413-.L408)/2
 3313 001f 51       		.byte	(.L413-.L408)/2
 3314 0020 19       		.byte	(.L410-.L408)/2
 3315 0021 51       		.byte	(.L413-.L408)/2
 3316 0022 51       		.byte	(.L413-.L408)/2
 3317 0023 51       		.byte	(.L413-.L408)/2
 3318 0024 2C       		.byte	(.L409-.L408)/2
 3319 0025 51       		.byte	(.L413-.L408)/2
 3320 0026 51       		.byte	(.L413-.L408)/2
 3321 0027 51       		.byte	(.L413-.L408)/2
 3322 0028 3E       		.byte	(.L407-.L408)/2
 3323 0029 00       		.p2align 1
 3324              	.L411:
 3325 002a CB68     		ldr	r3, [r1, #12]
 3326 002c 4A68     		ldr	r2, [r1, #4]
 3327 002e 0968     		ldr	r1, [r1]
 3328 0030 0068     		ldr	r0, [r0]
 3329 0032 FFF7FEFF 		bl	TIM_TI1_SetConfig
 3330 0036 2268     		ldr	r2, [r4]
 3331 0038 9369     		ldr	r3, [r2, #24]
 3332 003a 23F00C03 		bic	r3, r3, #12
 3333 003e 9361     		str	r3, [r2, #24]
 3334 0040 2268     		ldr	r2, [r4]
 3335 0042 9369     		ldr	r3, [r2, #24]
 3336 0044 A968     		ldr	r1, [r5, #8]
 3337 0046 0B43     		orrs	r3, r3, r1
 3338 0048 9361     		str	r3, [r2, #24]
 3339 004a 0020     		movs	r0, #0
 3340 004c 38E0     		b	.L406
 3341              	.L410:
 3342 004e CB68     		ldr	r3, [r1, #12]
 3343 0050 4A68     		ldr	r2, [r1, #4]
 3344 0052 0968     		ldr	r1, [r1]
 3345 0054 0068     		ldr	r0, [r0]
 3346 0056 FFF7FEFF 		bl	TIM_TI2_SetConfig
 3347 005a 2268     		ldr	r2, [r4]
 3348 005c 9369     		ldr	r3, [r2, #24]
 3349 005e 23F44063 		bic	r3, r3, #3072
 3350 0062 9361     		str	r3, [r2, #24]
 3351 0064 2268     		ldr	r2, [r4]
 3352 0066 9369     		ldr	r3, [r2, #24]
 3353 0068 A968     		ldr	r1, [r5, #8]
 3354 006a 43EA0123 		orr	r3, r3, r1, lsl #8
 3355 006e 9361     		str	r3, [r2, #24]
 3356 0070 0020     		movs	r0, #0
 3357 0072 25E0     		b	.L406
ARM GAS  C:\Users\PNGUBO~1\AppData\Local\Temp\ccYA2Pp6.s 			page 57


 3358              	.L409:
 3359 0074 CB68     		ldr	r3, [r1, #12]
 3360 0076 4A68     		ldr	r2, [r1, #4]
 3361 0078 0968     		ldr	r1, [r1]
 3362 007a 0068     		ldr	r0, [r0]
 3363 007c FFF7FEFF 		bl	TIM_TI3_SetConfig
 3364 0080 2268     		ldr	r2, [r4]
 3365 0082 D369     		ldr	r3, [r2, #28]
 3366 0084 23F00C03 		bic	r3, r3, #12
 3367 0088 D361     		str	r3, [r2, #28]
 3368 008a 2268     		ldr	r2, [r4]
 3369 008c D369     		ldr	r3, [r2, #28]
 3370 008e A968     		ldr	r1, [r5, #8]
 3371 0090 0B43     		orrs	r3, r3, r1
 3372 0092 D361     		str	r3, [r2, #28]
 3373 0094 0020     		movs	r0, #0
 3374 0096 13E0     		b	.L406
 3375              	.L407:
 3376 0098 CB68     		ldr	r3, [r1, #12]
 3377 009a 4A68     		ldr	r2, [r1, #4]
 3378 009c 0968     		ldr	r1, [r1]
 3379 009e 0068     		ldr	r0, [r0]
 3380 00a0 FFF7FEFF 		bl	TIM_TI4_SetConfig
 3381 00a4 2268     		ldr	r2, [r4]
 3382 00a6 D369     		ldr	r3, [r2, #28]
 3383 00a8 23F44063 		bic	r3, r3, #3072
 3384 00ac D361     		str	r3, [r2, #28]
 3385 00ae 2268     		ldr	r2, [r4]
 3386 00b0 D369     		ldr	r3, [r2, #28]
 3387 00b2 A968     		ldr	r1, [r5, #8]
 3388 00b4 43EA0123 		orr	r3, r3, r1, lsl #8
 3389 00b8 D361     		str	r3, [r2, #28]
 3390 00ba 0020     		movs	r0, #0
 3391 00bc 00E0     		b	.L406
 3392              	.L413:
 3393 00be 0120     		movs	r0, #1
 3394              	.L406:
 3395 00c0 0023     		movs	r3, #0
 3396 00c2 84F83C30 		strb	r3, [r4, #60]
 3397              	.L405:
 3398 00c6 38BD     		pop	{r3, r4, r5, pc}
 3399              	.L412:
 3400 00c8 0220     		movs	r0, #2
 3401 00ca FCE7     		b	.L405
 3403              		.section	.text.HAL_TIM_OnePulse_ConfigChannel,"ax",%progbits
 3404              		.align	1
 3405              		.global	HAL_TIM_OnePulse_ConfigChannel
 3406              		.syntax unified
 3407              		.thumb
 3408              		.thumb_func
 3410              	HAL_TIM_OnePulse_ConfigChannel:
 3411              		@ args = 0, pretend = 0, frame = 32
 3412              		@ frame_needed = 0, uses_anonymous_args = 0
 3413 0000 9A42     		cmp	r2, r3
 3414 0002 76D0     		beq	.L423
 3415 0004 70B5     		push	{r4, r5, r6, lr}
 3416 0006 88B0     		sub	sp, sp, #32
ARM GAS  C:\Users\PNGUBO~1\AppData\Local\Temp\ccYA2Pp6.s 			page 58


 3417 0008 0446     		mov	r4, r0
 3418 000a 0D46     		mov	r5, r1
 3419 000c 1E46     		mov	r6, r3
 3420 000e 90F83C30 		ldrb	r3, [r0, #60]	@ zero_extendqisi2
 3421 0012 012B     		cmp	r3, #1
 3422 0014 6FD0     		beq	.L424
 3423 0016 0123     		movs	r3, #1
 3424 0018 80F83C30 		strb	r3, [r0, #60]
 3425 001c 0223     		movs	r3, #2
 3426 001e 80F83D30 		strb	r3, [r0, #61]
 3427 0022 0B68     		ldr	r3, [r1]
 3428 0024 0193     		str	r3, [sp, #4]
 3429 0026 4B68     		ldr	r3, [r1, #4]
 3430 0028 0293     		str	r3, [sp, #8]
 3431 002a 8B68     		ldr	r3, [r1, #8]
 3432 002c 0393     		str	r3, [sp, #12]
 3433 002e CB68     		ldr	r3, [r1, #12]
 3434 0030 0493     		str	r3, [sp, #16]
 3435 0032 0B69     		ldr	r3, [r1, #16]
 3436 0034 0693     		str	r3, [sp, #24]
 3437 0036 4B69     		ldr	r3, [r1, #20]
 3438 0038 0793     		str	r3, [sp, #28]
 3439 003a 52B1     		cbz	r2, .L417
 3440 003c 042A     		cmp	r2, #4
 3441 003e 11D0     		beq	.L418
 3442 0040 0120     		movs	r0, #1
 3443              	.L419:
 3444 0042 0123     		movs	r3, #1
 3445 0044 84F83D30 		strb	r3, [r4, #61]
 3446 0048 0023     		movs	r3, #0
 3447 004a 84F83C30 		strb	r3, [r4, #60]
 3448              	.L416:
 3449 004e 08B0     		add	sp, sp, #32
 3450              		@ sp needed
 3451 0050 70BD     		pop	{r4, r5, r6, pc}
 3452              	.L417:
 3453 0052 01A9     		add	r1, sp, #4
 3454 0054 0068     		ldr	r0, [r0]
 3455 0056 FFF7FEFF 		bl	TIM_OC1_SetConfig
 3456              	.L420:
 3457 005a 46B1     		cbz	r6, .L421
 3458 005c 042E     		cmp	r6, #4
 3459 005e 27D0     		beq	.L422
 3460 0060 0120     		movs	r0, #1
 3461 0062 EEE7     		b	.L419
 3462              	.L418:
 3463 0064 01A9     		add	r1, sp, #4
 3464 0066 0068     		ldr	r0, [r0]
 3465 0068 FFF7FEFF 		bl	TIM_OC2_SetConfig
 3466 006c F5E7     		b	.L420
 3467              	.L421:
 3468 006e 2B6A     		ldr	r3, [r5, #32]
 3469 0070 EA69     		ldr	r2, [r5, #28]
 3470 0072 A969     		ldr	r1, [r5, #24]
 3471 0074 2068     		ldr	r0, [r4]
 3472 0076 FFF7FEFF 		bl	TIM_TI1_SetConfig
 3473 007a 2268     		ldr	r2, [r4]
ARM GAS  C:\Users\PNGUBO~1\AppData\Local\Temp\ccYA2Pp6.s 			page 59


 3474 007c 9369     		ldr	r3, [r2, #24]
 3475 007e 23F00C03 		bic	r3, r3, #12
 3476 0082 9361     		str	r3, [r2, #24]
 3477 0084 2268     		ldr	r2, [r4]
 3478 0086 9368     		ldr	r3, [r2, #8]
 3479 0088 23F07003 		bic	r3, r3, #112
 3480 008c 9360     		str	r3, [r2, #8]
 3481 008e 2268     		ldr	r2, [r4]
 3482 0090 9368     		ldr	r3, [r2, #8]
 3483 0092 43F05003 		orr	r3, r3, #80
 3484 0096 9360     		str	r3, [r2, #8]
 3485 0098 2268     		ldr	r2, [r4]
 3486 009a 9368     		ldr	r3, [r2, #8]
 3487 009c 23F00703 		bic	r3, r3, #7
 3488 00a0 9360     		str	r3, [r2, #8]
 3489 00a2 2268     		ldr	r2, [r4]
 3490 00a4 9368     		ldr	r3, [r2, #8]
 3491 00a6 43F00603 		orr	r3, r3, #6
 3492 00aa 9360     		str	r3, [r2, #8]
 3493 00ac 0020     		movs	r0, #0
 3494 00ae C8E7     		b	.L419
 3495              	.L422:
 3496 00b0 2B6A     		ldr	r3, [r5, #32]
 3497 00b2 EA69     		ldr	r2, [r5, #28]
 3498 00b4 A969     		ldr	r1, [r5, #24]
 3499 00b6 2068     		ldr	r0, [r4]
 3500 00b8 FFF7FEFF 		bl	TIM_TI2_SetConfig
 3501 00bc 2268     		ldr	r2, [r4]
 3502 00be 9369     		ldr	r3, [r2, #24]
 3503 00c0 23F44063 		bic	r3, r3, #3072
 3504 00c4 9361     		str	r3, [r2, #24]
 3505 00c6 2268     		ldr	r2, [r4]
 3506 00c8 9368     		ldr	r3, [r2, #8]
 3507 00ca 23F07003 		bic	r3, r3, #112
 3508 00ce 9360     		str	r3, [r2, #8]
 3509 00d0 2268     		ldr	r2, [r4]
 3510 00d2 9368     		ldr	r3, [r2, #8]
 3511 00d4 43F06003 		orr	r3, r3, #96
 3512 00d8 9360     		str	r3, [r2, #8]
 3513 00da 2268     		ldr	r2, [r4]
 3514 00dc 9368     		ldr	r3, [r2, #8]
 3515 00de 23F00703 		bic	r3, r3, #7
 3516 00e2 9360     		str	r3, [r2, #8]
 3517 00e4 2268     		ldr	r2, [r4]
 3518 00e6 9368     		ldr	r3, [r2, #8]
 3519 00e8 43F00603 		orr	r3, r3, #6
 3520 00ec 9360     		str	r3, [r2, #8]
 3521 00ee 0020     		movs	r0, #0
 3522 00f0 A7E7     		b	.L419
 3523              	.L423:
 3524 00f2 0120     		movs	r0, #1
 3525 00f4 7047     		bx	lr
 3526              	.L424:
 3527 00f6 0220     		movs	r0, #2
 3528 00f8 A9E7     		b	.L416
 3530              		.section	.text.TIM_ETR_SetConfig,"ax",%progbits
 3531              		.align	1
ARM GAS  C:\Users\PNGUBO~1\AppData\Local\Temp\ccYA2Pp6.s 			page 60


 3532              		.global	TIM_ETR_SetConfig
 3533              		.syntax unified
 3534              		.thumb
 3535              		.thumb_func
 3537              	TIM_ETR_SetConfig:
 3538              		@ args = 0, pretend = 0, frame = 0
 3539              		@ frame_needed = 0, uses_anonymous_args = 0
 3540              		@ link register save eliminated.
 3541 0000 10B4     		push	{r4}
 3542 0002 8468     		ldr	r4, [r0, #8]
 3543 0004 24F47F4C 		bic	ip, r4, #65280
 3544 0008 42EA0322 		orr	r2, r2, r3, lsl #8
 3545 000c 0A43     		orrs	r2, r2, r1
 3546 000e 42EA0C02 		orr	r2, r2, ip
 3547 0012 8260     		str	r2, [r0, #8]
 3548 0014 5DF8044B 		ldr	r4, [sp], #4
 3549 0018 7047     		bx	lr
 3551              		.section	.text.HAL_TIM_ConfigOCrefClear,"ax",%progbits
 3552              		.align	1
 3553              		.global	HAL_TIM_ConfigOCrefClear
 3554              		.syntax unified
 3555              		.thumb
 3556              		.thumb_func
 3558              	HAL_TIM_ConfigOCrefClear:
 3559              		@ args = 0, pretend = 0, frame = 0
 3560              		@ frame_needed = 0, uses_anonymous_args = 0
 3561 0000 90F83C30 		ldrb	r3, [r0, #60]	@ zero_extendqisi2
 3562 0004 012B     		cmp	r3, #1
 3563 0006 76D0     		beq	.L447
 3564 0008 70B5     		push	{r4, r5, r6, lr}
 3565 000a 0446     		mov	r4, r0
 3566 000c 0D46     		mov	r5, r1
 3567 000e 1646     		mov	r6, r2
 3568 0010 0123     		movs	r3, #1
 3569 0012 80F83C30 		strb	r3, [r0, #60]
 3570 0016 0223     		movs	r3, #2
 3571 0018 80F83D30 		strb	r3, [r0, #61]
 3572 001c 4B68     		ldr	r3, [r1, #4]
 3573 001e 4BB1     		cbz	r3, .L433
 3574 0020 012B     		cmp	r3, #1
 3575 0022 17D0     		beq	.L434
 3576 0024 0120     		movs	r0, #1
 3577              	.L435:
 3578 0026 0123     		movs	r3, #1
 3579 0028 84F83D30 		strb	r3, [r4, #61]
 3580 002c 0023     		movs	r3, #0
 3581 002e 84F83C30 		strb	r3, [r4, #60]
 3582              	.L432:
 3583 0032 70BD     		pop	{r4, r5, r6, pc}
 3584              	.L433:
 3585 0034 0268     		ldr	r2, [r0]
 3586 0036 9368     		ldr	r3, [r2, #8]
 3587 0038 23F47F43 		bic	r3, r3, #65280
 3588 003c 9360     		str	r3, [r2, #8]
 3589              	.L436:
 3590 003e 0C2E     		cmp	r6, #12
 3591 0040 57D8     		bhi	.L448
ARM GAS  C:\Users\PNGUBO~1\AppData\Local\Temp\ccYA2Pp6.s 			page 61


 3592 0042 DFE806F0 		tbb	[pc, r6]
 3593              	.L439:
 3594 0046 16       		.byte	(.L442-.L439)/2
 3595 0047 56       		.byte	(.L448-.L439)/2
 3596 0048 56       		.byte	(.L448-.L439)/2
 3597 0049 56       		.byte	(.L448-.L439)/2
 3598 004a 26       		.byte	(.L441-.L439)/2
 3599 004b 56       		.byte	(.L448-.L439)/2
 3600 004c 56       		.byte	(.L448-.L439)/2
 3601 004d 56       		.byte	(.L448-.L439)/2
 3602 004e 36       		.byte	(.L440-.L439)/2
 3603 004f 56       		.byte	(.L448-.L439)/2
 3604 0050 56       		.byte	(.L448-.L439)/2
 3605 0051 56       		.byte	(.L448-.L439)/2
 3606 0052 46       		.byte	(.L438-.L439)/2
 3607 0053 00       		.p2align 1
 3608              	.L434:
 3609 0054 C968     		ldr	r1, [r1, #12]
 3610 0056 31B1     		cbz	r1, .L437
 3611 0058 0120     		movs	r0, #1
 3612 005a 84F83D00 		strb	r0, [r4, #61]
 3613 005e 0023     		movs	r3, #0
 3614 0060 84F83C30 		strb	r3, [r4, #60]
 3615 0064 E5E7     		b	.L432
 3616              	.L437:
 3617 0066 2B69     		ldr	r3, [r5, #16]
 3618 0068 AA68     		ldr	r2, [r5, #8]
 3619 006a 0068     		ldr	r0, [r0]
 3620 006c FFF7FEFF 		bl	TIM_ETR_SetConfig
 3621 0070 E5E7     		b	.L436
 3622              	.L442:
 3623 0072 2B68     		ldr	r3, [r5]
 3624 0074 33B1     		cbz	r3, .L443
 3625 0076 2268     		ldr	r2, [r4]
 3626 0078 9369     		ldr	r3, [r2, #24]
 3627 007a 43F08003 		orr	r3, r3, #128
 3628 007e 9361     		str	r3, [r2, #24]
 3629 0080 0020     		movs	r0, #0
 3630 0082 D0E7     		b	.L435
 3631              	.L443:
 3632 0084 2268     		ldr	r2, [r4]
 3633 0086 9369     		ldr	r3, [r2, #24]
 3634 0088 23F08003 		bic	r3, r3, #128
 3635 008c 9361     		str	r3, [r2, #24]
 3636 008e 0020     		movs	r0, #0
 3637 0090 C9E7     		b	.L435
 3638              	.L441:
 3639 0092 2B68     		ldr	r3, [r5]
 3640 0094 33B1     		cbz	r3, .L444
 3641 0096 2268     		ldr	r2, [r4]
 3642 0098 9369     		ldr	r3, [r2, #24]
 3643 009a 43F40043 		orr	r3, r3, #32768
 3644 009e 9361     		str	r3, [r2, #24]
 3645 00a0 0020     		movs	r0, #0
 3646 00a2 C0E7     		b	.L435
 3647              	.L444:
 3648 00a4 2268     		ldr	r2, [r4]
ARM GAS  C:\Users\PNGUBO~1\AppData\Local\Temp\ccYA2Pp6.s 			page 62


 3649 00a6 9369     		ldr	r3, [r2, #24]
 3650 00a8 23F40043 		bic	r3, r3, #32768
 3651 00ac 9361     		str	r3, [r2, #24]
 3652 00ae 0020     		movs	r0, #0
 3653 00b0 B9E7     		b	.L435
 3654              	.L440:
 3655 00b2 2B68     		ldr	r3, [r5]
 3656 00b4 33B1     		cbz	r3, .L445
 3657 00b6 2268     		ldr	r2, [r4]
 3658 00b8 D369     		ldr	r3, [r2, #28]
 3659 00ba 43F08003 		orr	r3, r3, #128
 3660 00be D361     		str	r3, [r2, #28]
 3661 00c0 0020     		movs	r0, #0
 3662 00c2 B0E7     		b	.L435
 3663              	.L445:
 3664 00c4 2268     		ldr	r2, [r4]
 3665 00c6 D369     		ldr	r3, [r2, #28]
 3666 00c8 23F08003 		bic	r3, r3, #128
 3667 00cc D361     		str	r3, [r2, #28]
 3668 00ce 0020     		movs	r0, #0
 3669 00d0 A9E7     		b	.L435
 3670              	.L438:
 3671 00d2 2B68     		ldr	r3, [r5]
 3672 00d4 33B1     		cbz	r3, .L446
 3673 00d6 2268     		ldr	r2, [r4]
 3674 00d8 D369     		ldr	r3, [r2, #28]
 3675 00da 43F40043 		orr	r3, r3, #32768
 3676 00de D361     		str	r3, [r2, #28]
 3677 00e0 0020     		movs	r0, #0
 3678 00e2 A0E7     		b	.L435
 3679              	.L446:
 3680 00e4 2268     		ldr	r2, [r4]
 3681 00e6 D369     		ldr	r3, [r2, #28]
 3682 00e8 23F40043 		bic	r3, r3, #32768
 3683 00ec D361     		str	r3, [r2, #28]
 3684 00ee 0020     		movs	r0, #0
 3685 00f0 99E7     		b	.L435
 3686              	.L448:
 3687 00f2 0020     		movs	r0, #0
 3688 00f4 97E7     		b	.L435
 3689              	.L447:
 3690 00f6 0220     		movs	r0, #2
 3691 00f8 7047     		bx	lr
 3693              		.section	.text.HAL_TIM_ConfigClockSource,"ax",%progbits
 3694              		.align	1
 3695              		.global	HAL_TIM_ConfigClockSource
 3696              		.syntax unified
 3697              		.thumb
 3698              		.thumb_func
 3700              	HAL_TIM_ConfigClockSource:
 3701              		@ args = 0, pretend = 0, frame = 0
 3702              		@ frame_needed = 0, uses_anonymous_args = 0
 3703 0000 90F83C30 		ldrb	r3, [r0, #60]	@ zero_extendqisi2
 3704 0004 012B     		cmp	r3, #1
 3705 0006 78D0     		beq	.L464
 3706 0008 10B5     		push	{r4, lr}
 3707 000a 0446     		mov	r4, r0
ARM GAS  C:\Users\PNGUBO~1\AppData\Local\Temp\ccYA2Pp6.s 			page 63


 3708 000c 0123     		movs	r3, #1
 3709 000e 80F83C30 		strb	r3, [r0, #60]
 3710 0012 0223     		movs	r3, #2
 3711 0014 80F83D30 		strb	r3, [r0, #61]
 3712 0018 0268     		ldr	r2, [r0]
 3713 001a 9368     		ldr	r3, [r2, #8]
 3714 001c 23F47F43 		bic	r3, r3, #65280
 3715 0020 23F07703 		bic	r3, r3, #119
 3716 0024 9360     		str	r3, [r2, #8]
 3717 0026 0B68     		ldr	r3, [r1]
 3718 0028 602B     		cmp	r3, #96
 3719 002a 4CD0     		beq	.L455
 3720 002c 23D8     		bhi	.L456
 3721 002e 402B     		cmp	r3, #64
 3722 0030 54D0     		beq	.L457
 3723 0032 11D8     		bhi	.L458
 3724 0034 202B     		cmp	r3, #32
 3725 0036 03D0     		beq	.L459
 3726 0038 0AD8     		bhi	.L460
 3727 003a 0BB1     		cbz	r3, .L459
 3728 003c 102B     		cmp	r3, #16
 3729 003e 05D1     		bne	.L471
 3730              	.L459:
 3731 0040 1946     		mov	r1, r3
 3732 0042 2068     		ldr	r0, [r4]
 3733 0044 FFF7FEFF 		bl	TIM_ITRx_SetConfig
 3734 0048 0020     		movs	r0, #0
 3735 004a 28E0     		b	.L461
 3736              	.L471:
 3737 004c 0120     		movs	r0, #1
 3738 004e 26E0     		b	.L461
 3739              	.L460:
 3740 0050 302B     		cmp	r3, #48
 3741 0052 F5D0     		beq	.L459
 3742 0054 0120     		movs	r0, #1
 3743 0056 22E0     		b	.L461
 3744              	.L458:
 3745 0058 502B     		cmp	r3, #80
 3746 005a 0AD1     		bne	.L472
 3747 005c CA68     		ldr	r2, [r1, #12]
 3748 005e 4968     		ldr	r1, [r1, #4]
 3749 0060 0068     		ldr	r0, [r0]
 3750 0062 FFF7FEFF 		bl	TIM_TI1_ConfigInputStage
 3751 0066 5021     		movs	r1, #80
 3752 0068 2068     		ldr	r0, [r4]
 3753 006a FFF7FEFF 		bl	TIM_ITRx_SetConfig
 3754 006e 0020     		movs	r0, #0
 3755 0070 15E0     		b	.L461
 3756              	.L472:
 3757 0072 0120     		movs	r0, #1
 3758 0074 13E0     		b	.L461
 3759              	.L456:
 3760 0076 B3F5805F 		cmp	r3, #4096
 3761 007a 3AD0     		beq	.L465
 3762 007c B3F5005F 		cmp	r3, #8192
 3763 0080 14D0     		beq	.L463
 3764 0082 702B     		cmp	r3, #112
ARM GAS  C:\Users\PNGUBO~1\AppData\Local\Temp\ccYA2Pp6.s 			page 64


 3765 0084 37D1     		bne	.L466
 3766 0086 CB68     		ldr	r3, [r1, #12]
 3767 0088 4A68     		ldr	r2, [r1, #4]
 3768 008a 8968     		ldr	r1, [r1, #8]
 3769 008c 0068     		ldr	r0, [r0]
 3770 008e FFF7FEFF 		bl	TIM_ETR_SetConfig
 3771 0092 2268     		ldr	r2, [r4]
 3772 0094 9368     		ldr	r3, [r2, #8]
 3773 0096 43F07703 		orr	r3, r3, #119
 3774 009a 9360     		str	r3, [r2, #8]
 3775 009c 0020     		movs	r0, #0
 3776              	.L461:
 3777 009e 0123     		movs	r3, #1
 3778 00a0 84F83D30 		strb	r3, [r4, #61]
 3779 00a4 0023     		movs	r3, #0
 3780 00a6 84F83C30 		strb	r3, [r4, #60]
 3781 00aa 10BD     		pop	{r4, pc}
 3782              	.L463:
 3783 00ac CB68     		ldr	r3, [r1, #12]
 3784 00ae 4A68     		ldr	r2, [r1, #4]
 3785 00b0 8968     		ldr	r1, [r1, #8]
 3786 00b2 0068     		ldr	r0, [r0]
 3787 00b4 FFF7FEFF 		bl	TIM_ETR_SetConfig
 3788 00b8 2268     		ldr	r2, [r4]
 3789 00ba 9368     		ldr	r3, [r2, #8]
 3790 00bc 43F48043 		orr	r3, r3, #16384
 3791 00c0 9360     		str	r3, [r2, #8]
 3792 00c2 0020     		movs	r0, #0
 3793 00c4 EBE7     		b	.L461
 3794              	.L455:
 3795 00c6 CA68     		ldr	r2, [r1, #12]
 3796 00c8 4968     		ldr	r1, [r1, #4]
 3797 00ca 0068     		ldr	r0, [r0]
 3798 00cc FFF7FEFF 		bl	TIM_TI2_ConfigInputStage
 3799 00d0 6021     		movs	r1, #96
 3800 00d2 2068     		ldr	r0, [r4]
 3801 00d4 FFF7FEFF 		bl	TIM_ITRx_SetConfig
 3802 00d8 0020     		movs	r0, #0
 3803 00da E0E7     		b	.L461
 3804              	.L457:
 3805 00dc CA68     		ldr	r2, [r1, #12]
 3806 00de 4968     		ldr	r1, [r1, #4]
 3807 00e0 0068     		ldr	r0, [r0]
 3808 00e2 FFF7FEFF 		bl	TIM_TI1_ConfigInputStage
 3809 00e6 4021     		movs	r1, #64
 3810 00e8 2068     		ldr	r0, [r4]
 3811 00ea FFF7FEFF 		bl	TIM_ITRx_SetConfig
 3812 00ee 0020     		movs	r0, #0
 3813 00f0 D5E7     		b	.L461
 3814              	.L465:
 3815 00f2 0020     		movs	r0, #0
 3816 00f4 D3E7     		b	.L461
 3817              	.L466:
 3818 00f6 0120     		movs	r0, #1
 3819 00f8 D1E7     		b	.L461
 3820              	.L464:
 3821 00fa 0220     		movs	r0, #2
ARM GAS  C:\Users\PNGUBO~1\AppData\Local\Temp\ccYA2Pp6.s 			page 65


 3822 00fc 7047     		bx	lr
 3824              		.section	.text.TIM_SlaveTimer_SetConfig,"ax",%progbits
 3825              		.align	1
 3826              		.syntax unified
 3827              		.thumb
 3828              		.thumb_func
 3830              	TIM_SlaveTimer_SetConfig:
 3831              		@ args = 0, pretend = 0, frame = 0
 3832              		@ frame_needed = 0, uses_anonymous_args = 0
 3833 0000 10B5     		push	{r4, lr}
 3834 0002 0468     		ldr	r4, [r0]
 3835 0004 A268     		ldr	r2, [r4, #8]
 3836 0006 22F07002 		bic	r2, r2, #112
 3837 000a 4B68     		ldr	r3, [r1, #4]
 3838 000c 1343     		orrs	r3, r3, r2
 3839 000e 23F00703 		bic	r3, r3, #7
 3840 0012 0A68     		ldr	r2, [r1]
 3841 0014 1A43     		orrs	r2, r2, r3
 3842 0016 A260     		str	r2, [r4, #8]
 3843 0018 4B68     		ldr	r3, [r1, #4]
 3844 001a 502B     		cmp	r3, #80
 3845 001c 30D0     		beq	.L474
 3846 001e 0BD9     		bls	.L488
 3847 0020 602B     		cmp	r3, #96
 3848 0022 34D0     		beq	.L479
 3849 0024 702B     		cmp	r3, #112
 3850 0026 43D1     		bne	.L485
 3851 0028 0B69     		ldr	r3, [r1, #16]
 3852 002a 8A68     		ldr	r2, [r1, #8]
 3853 002c C968     		ldr	r1, [r1, #12]
 3854 002e 0068     		ldr	r0, [r0]
 3855 0030 FFF7FEFF 		bl	TIM_ETR_SetConfig
 3856 0034 0020     		movs	r0, #0
 3857              	.L477:
 3858 0036 10BD     		pop	{r4, pc}
 3859              	.L488:
 3860 0038 402B     		cmp	r3, #64
 3861 003a 0CD0     		beq	.L476
 3862 003c 2ED8     		bhi	.L480
 3863 003e 202B     		cmp	r3, #32
 3864 0040 2ED0     		beq	.L481
 3865 0042 04D8     		bhi	.L478
 3866 0044 73B3     		cbz	r3, .L482
 3867 0046 102B     		cmp	r3, #16
 3868 0048 2ED1     		bne	.L483
 3869 004a 0020     		movs	r0, #0
 3870 004c F3E7     		b	.L477
 3871              	.L478:
 3872 004e 302B     		cmp	r3, #48
 3873 0050 2CD1     		bne	.L484
 3874 0052 0020     		movs	r0, #0
 3875 0054 EFE7     		b	.L477
 3876              	.L476:
 3877 0056 0B68     		ldr	r3, [r1]
 3878 0058 052B     		cmp	r3, #5
 3879 005a 2BD0     		beq	.L486
 3880 005c 0368     		ldr	r3, [r0]
ARM GAS  C:\Users\PNGUBO~1\AppData\Local\Temp\ccYA2Pp6.s 			page 66


 3881 005e 1C6A     		ldr	r4, [r3, #32]
 3882 0060 1A6A     		ldr	r2, [r3, #32]
 3883 0062 22F00102 		bic	r2, r2, #1
 3884 0066 1A62     		str	r2, [r3, #32]
 3885 0068 0268     		ldr	r2, [r0]
 3886 006a 9369     		ldr	r3, [r2, #24]
 3887 006c 23F0F003 		bic	r3, r3, #240
 3888 0070 0969     		ldr	r1, [r1, #16]
 3889 0072 43EA0113 		orr	r3, r3, r1, lsl #4
 3890 0076 9361     		str	r3, [r2, #24]
 3891 0078 0368     		ldr	r3, [r0]
 3892 007a 1C62     		str	r4, [r3, #32]
 3893 007c 0020     		movs	r0, #0
 3894 007e DAE7     		b	.L477
 3895              	.L474:
 3896 0080 0A69     		ldr	r2, [r1, #16]
 3897 0082 8968     		ldr	r1, [r1, #8]
 3898 0084 0068     		ldr	r0, [r0]
 3899 0086 FFF7FEFF 		bl	TIM_TI1_ConfigInputStage
 3900 008a 0020     		movs	r0, #0
 3901 008c D3E7     		b	.L477
 3902              	.L479:
 3903 008e 0A69     		ldr	r2, [r1, #16]
 3904 0090 8968     		ldr	r1, [r1, #8]
 3905 0092 0068     		ldr	r0, [r0]
 3906 0094 FFF7FEFF 		bl	TIM_TI2_ConfigInputStage
 3907 0098 0020     		movs	r0, #0
 3908 009a CCE7     		b	.L477
 3909              	.L480:
 3910 009c 0120     		movs	r0, #1
 3911 009e CAE7     		b	.L477
 3912              	.L481:
 3913 00a0 0020     		movs	r0, #0
 3914 00a2 C8E7     		b	.L477
 3915              	.L482:
 3916 00a4 0020     		movs	r0, #0
 3917 00a6 C6E7     		b	.L477
 3918              	.L483:
 3919 00a8 0120     		movs	r0, #1
 3920 00aa C4E7     		b	.L477
 3921              	.L484:
 3922 00ac 0120     		movs	r0, #1
 3923 00ae C2E7     		b	.L477
 3924              	.L485:
 3925 00b0 0120     		movs	r0, #1
 3926 00b2 C0E7     		b	.L477
 3927              	.L486:
 3928 00b4 0120     		movs	r0, #1
 3929 00b6 BEE7     		b	.L477
 3931              		.section	.text.HAL_TIM_SlaveConfigSynchro,"ax",%progbits
 3932              		.align	1
 3933              		.global	HAL_TIM_SlaveConfigSynchro
 3934              		.syntax unified
 3935              		.thumb
 3936              		.thumb_func
 3938              	HAL_TIM_SlaveConfigSynchro:
 3939              		@ args = 0, pretend = 0, frame = 0
ARM GAS  C:\Users\PNGUBO~1\AppData\Local\Temp\ccYA2Pp6.s 			page 67


 3940              		@ frame_needed = 0, uses_anonymous_args = 0
 3941 0000 90F83C30 		ldrb	r3, [r0, #60]	@ zero_extendqisi2
 3942 0004 012B     		cmp	r3, #1
 3943 0006 22D0     		beq	.L492
 3944 0008 10B5     		push	{r4, lr}
 3945 000a 0446     		mov	r4, r0
 3946 000c 0123     		movs	r3, #1
 3947 000e 80F83C30 		strb	r3, [r0, #60]
 3948 0012 0223     		movs	r3, #2
 3949 0014 80F83D30 		strb	r3, [r0, #61]
 3950 0018 FFF7FEFF 		bl	TIM_SlaveTimer_SetConfig
 3951 001c 80B9     		cbnz	r0, .L497
 3952 001e 2268     		ldr	r2, [r4]
 3953 0020 D368     		ldr	r3, [r2, #12]
 3954 0022 23F04003 		bic	r3, r3, #64
 3955 0026 D360     		str	r3, [r2, #12]
 3956 0028 2268     		ldr	r2, [r4]
 3957 002a D368     		ldr	r3, [r2, #12]
 3958 002c 23F48043 		bic	r3, r3, #16384
 3959 0030 D360     		str	r3, [r2, #12]
 3960 0032 0123     		movs	r3, #1
 3961 0034 84F83D30 		strb	r3, [r4, #61]
 3962 0038 0023     		movs	r3, #0
 3963 003a 84F83C30 		strb	r3, [r4, #60]
 3964              	.L490:
 3965 003e 10BD     		pop	{r4, pc}
 3966              	.L497:
 3967 0040 0120     		movs	r0, #1
 3968 0042 84F83D00 		strb	r0, [r4, #61]
 3969 0046 0023     		movs	r3, #0
 3970 0048 84F83C30 		strb	r3, [r4, #60]
 3971 004c F7E7     		b	.L490
 3972              	.L492:
 3973 004e 0220     		movs	r0, #2
 3974 0050 7047     		bx	lr
 3976              		.section	.text.HAL_TIM_SlaveConfigSynchro_IT,"ax",%progbits
 3977              		.align	1
 3978              		.global	HAL_TIM_SlaveConfigSynchro_IT
 3979              		.syntax unified
 3980              		.thumb
 3981              		.thumb_func
 3983              	HAL_TIM_SlaveConfigSynchro_IT:
 3984              		@ args = 0, pretend = 0, frame = 0
 3985              		@ frame_needed = 0, uses_anonymous_args = 0
 3986 0000 90F83C30 		ldrb	r3, [r0, #60]	@ zero_extendqisi2
 3987 0004 012B     		cmp	r3, #1
 3988 0006 22D0     		beq	.L501
 3989 0008 10B5     		push	{r4, lr}
 3990 000a 0446     		mov	r4, r0
 3991 000c 0123     		movs	r3, #1
 3992 000e 80F83C30 		strb	r3, [r0, #60]
 3993 0012 0223     		movs	r3, #2
 3994 0014 80F83D30 		strb	r3, [r0, #61]
 3995 0018 FFF7FEFF 		bl	TIM_SlaveTimer_SetConfig
 3996 001c 80B9     		cbnz	r0, .L506
 3997 001e 2268     		ldr	r2, [r4]
 3998 0020 D368     		ldr	r3, [r2, #12]
ARM GAS  C:\Users\PNGUBO~1\AppData\Local\Temp\ccYA2Pp6.s 			page 68


 3999 0022 43F04003 		orr	r3, r3, #64
 4000 0026 D360     		str	r3, [r2, #12]
 4001 0028 2268     		ldr	r2, [r4]
 4002 002a D368     		ldr	r3, [r2, #12]
 4003 002c 23F48043 		bic	r3, r3, #16384
 4004 0030 D360     		str	r3, [r2, #12]
 4005 0032 0123     		movs	r3, #1
 4006 0034 84F83D30 		strb	r3, [r4, #61]
 4007 0038 0023     		movs	r3, #0
 4008 003a 84F83C30 		strb	r3, [r4, #60]
 4009              	.L499:
 4010 003e 10BD     		pop	{r4, pc}
 4011              	.L506:
 4012 0040 0120     		movs	r0, #1
 4013 0042 84F83D00 		strb	r0, [r4, #61]
 4014 0046 0023     		movs	r3, #0
 4015 0048 84F83C30 		strb	r3, [r4, #60]
 4016 004c F7E7     		b	.L499
 4017              	.L501:
 4018 004e 0220     		movs	r0, #2
 4019 0050 7047     		bx	lr
 4021              		.section	.text.TIM_CCxChannelCmd,"ax",%progbits
 4022              		.align	1
 4023              		.global	TIM_CCxChannelCmd
 4024              		.syntax unified
 4025              		.thumb
 4026              		.thumb_func
 4028              	TIM_CCxChannelCmd:
 4029              		@ args = 0, pretend = 0, frame = 0
 4030              		@ frame_needed = 0, uses_anonymous_args = 0
 4031              		@ link register save eliminated.
 4032 0000 01F01F01 		and	r1, r1, #31
 4033 0004 4FF0010C 		mov	ip, #1
 4034 0008 0CFA01FC 		lsl	ip, ip, r1
 4035 000c 036A     		ldr	r3, [r0, #32]
 4036 000e 23EA0C03 		bic	r3, r3, ip
 4037 0012 0362     		str	r3, [r0, #32]
 4038 0014 036A     		ldr	r3, [r0, #32]
 4039 0016 8A40     		lsls	r2, r2, r1
 4040 0018 1343     		orrs	r3, r3, r2
 4041 001a 0362     		str	r3, [r0, #32]
 4042 001c 7047     		bx	lr
 4044              		.section	.text.HAL_TIM_OC_Start,"ax",%progbits
 4045              		.align	1
 4046              		.global	HAL_TIM_OC_Start
 4047              		.syntax unified
 4048              		.thumb
 4049              		.thumb_func
 4051              	HAL_TIM_OC_Start:
 4052              		@ args = 0, pretend = 0, frame = 0
 4053              		@ frame_needed = 0, uses_anonymous_args = 0
 4054 0000 10B5     		push	{r4, lr}
 4055 0002 0446     		mov	r4, r0
 4056 0004 0846     		mov	r0, r1
 4057 0006 0029     		cmp	r1, #0
 4058 0008 41D1     		bne	.L509
 4059 000a 94F83E30 		ldrb	r3, [r4, #62]	@ zero_extendqisi2
ARM GAS  C:\Users\PNGUBO~1\AppData\Local\Temp\ccYA2Pp6.s 			page 69


 4060 000e 013B     		subs	r3, r3, #1
 4061 0010 18BF     		it	ne
 4062 0012 0123     		movne	r3, #1
 4063              	.L510:
 4064 0014 002B     		cmp	r3, #0
 4065 0016 6BD1     		bne	.L522
 4066 0018 0028     		cmp	r0, #0
 4067 001a 4ED1     		bne	.L514
 4068 001c 0223     		movs	r3, #2
 4069 001e 84F83E30 		strb	r3, [r4, #62]
 4070              	.L515:
 4071 0022 0122     		movs	r2, #1
 4072 0024 0146     		mov	r1, r0
 4073 0026 2068     		ldr	r0, [r4]
 4074 0028 FFF7FEFF 		bl	TIM_CCxChannelCmd
 4075 002c 2368     		ldr	r3, [r4]
 4076 002e 324A     		ldr	r2, .L529
 4077 0030 9342     		cmp	r3, r2
 4078 0032 03D0     		beq	.L518
 4079 0034 02F58062 		add	r2, r2, #1024
 4080 0038 9342     		cmp	r3, r2
 4081 003a 03D1     		bne	.L519
 4082              	.L518:
 4083 003c 5A6C     		ldr	r2, [r3, #68]
 4084 003e 42F40042 		orr	r2, r2, #32768
 4085 0042 5A64     		str	r2, [r3, #68]
 4086              	.L519:
 4087 0044 2368     		ldr	r3, [r4]
 4088 0046 2C4A     		ldr	r2, .L529
 4089 0048 9342     		cmp	r3, r2
 4090 004a 46D0     		beq	.L520
 4091 004c B3F1804F 		cmp	r3, #1073741824
 4092 0050 43D0     		beq	.L520
 4093 0052 A2F57C42 		sub	r2, r2, #64512
 4094 0056 9342     		cmp	r3, r2
 4095 0058 3FD0     		beq	.L520
 4096 005a 02F58062 		add	r2, r2, #1024
 4097 005e 9342     		cmp	r3, r2
 4098 0060 3BD0     		beq	.L520
 4099 0062 02F58062 		add	r2, r2, #1024
 4100 0066 9342     		cmp	r3, r2
 4101 0068 37D0     		beq	.L520
 4102 006a 02F57842 		add	r2, r2, #63488
 4103 006e 9342     		cmp	r3, r2
 4104 0070 33D0     		beq	.L520
 4105 0072 02F57052 		add	r2, r2, #15360
 4106 0076 9342     		cmp	r3, r2
 4107 0078 2FD0     		beq	.L520
 4108 007a A2F59432 		sub	r2, r2, #75776
 4109 007e 9342     		cmp	r3, r2
 4110 0080 2BD0     		beq	.L520
 4111 0082 1A68     		ldr	r2, [r3]
 4112 0084 42F00102 		orr	r2, r2, #1
 4113 0088 1A60     		str	r2, [r3]
 4114 008a 0020     		movs	r0, #0
 4115 008c 2FE0     		b	.L513
 4116              	.L509:
ARM GAS  C:\Users\PNGUBO~1\AppData\Local\Temp\ccYA2Pp6.s 			page 70


 4117 008e 0429     		cmp	r1, #4
 4118 0090 07D0     		beq	.L525
 4119 0092 0829     		cmp	r1, #8
 4120 0094 0BD0     		beq	.L526
 4121 0096 94F84130 		ldrb	r3, [r4, #65]	@ zero_extendqisi2
 4122 009a 013B     		subs	r3, r3, #1
 4123 009c 18BF     		it	ne
 4124 009e 0123     		movne	r3, #1
 4125 00a0 B8E7     		b	.L510
 4126              	.L525:
 4127 00a2 94F83F30 		ldrb	r3, [r4, #63]	@ zero_extendqisi2
 4128 00a6 013B     		subs	r3, r3, #1
 4129 00a8 18BF     		it	ne
 4130 00aa 0123     		movne	r3, #1
 4131 00ac B2E7     		b	.L510
 4132              	.L526:
 4133 00ae 94F84030 		ldrb	r3, [r4, #64]	@ zero_extendqisi2
 4134 00b2 013B     		subs	r3, r3, #1
 4135 00b4 18BF     		it	ne
 4136 00b6 0123     		movne	r3, #1
 4137 00b8 ACE7     		b	.L510
 4138              	.L514:
 4139 00ba 0428     		cmp	r0, #4
 4140 00bc 05D0     		beq	.L527
 4141 00be 0828     		cmp	r0, #8
 4142 00c0 07D0     		beq	.L528
 4143 00c2 0223     		movs	r3, #2
 4144 00c4 84F84130 		strb	r3, [r4, #65]
 4145 00c8 ABE7     		b	.L515
 4146              	.L527:
 4147 00ca 0223     		movs	r3, #2
 4148 00cc 84F83F30 		strb	r3, [r4, #63]
 4149 00d0 A7E7     		b	.L515
 4150              	.L528:
 4151 00d2 0223     		movs	r3, #2
 4152 00d4 84F84030 		strb	r3, [r4, #64]
 4153 00d8 A3E7     		b	.L515
 4154              	.L520:
 4155 00da 9A68     		ldr	r2, [r3, #8]
 4156 00dc 02F00702 		and	r2, r2, #7
 4157 00e0 062A     		cmp	r2, #6
 4158 00e2 07D0     		beq	.L523
 4159 00e4 1A68     		ldr	r2, [r3]
 4160 00e6 42F00102 		orr	r2, r2, #1
 4161 00ea 1A60     		str	r2, [r3]
 4162 00ec 0020     		movs	r0, #0
 4163              	.L513:
 4164 00ee 10BD     		pop	{r4, pc}
 4165              	.L522:
 4166 00f0 0120     		movs	r0, #1
 4167 00f2 FCE7     		b	.L513
 4168              	.L523:
 4169 00f4 0020     		movs	r0, #0
 4170 00f6 FAE7     		b	.L513
 4171              	.L530:
 4172              		.align	2
 4173              	.L529:
ARM GAS  C:\Users\PNGUBO~1\AppData\Local\Temp\ccYA2Pp6.s 			page 71


 4174 00f8 00000140 		.word	1073807360
 4176              		.section	.text.HAL_TIM_OC_Stop,"ax",%progbits
 4177              		.align	1
 4178              		.global	HAL_TIM_OC_Stop
 4179              		.syntax unified
 4180              		.thumb
 4181              		.thumb_func
 4183              	HAL_TIM_OC_Stop:
 4184              		@ args = 0, pretend = 0, frame = 0
 4185              		@ frame_needed = 0, uses_anonymous_args = 0
 4186 0000 38B5     		push	{r3, r4, r5, lr}
 4187 0002 0446     		mov	r4, r0
 4188 0004 0D46     		mov	r5, r1
 4189 0006 0022     		movs	r2, #0
 4190 0008 0068     		ldr	r0, [r0]
 4191 000a FFF7FEFF 		bl	TIM_CCxChannelCmd
 4192 000e 2368     		ldr	r3, [r4]
 4193 0010 1D4A     		ldr	r2, .L542
 4194 0012 9342     		cmp	r3, r2
 4195 0014 18D0     		beq	.L532
 4196 0016 02F58062 		add	r2, r2, #1024
 4197 001a 9342     		cmp	r3, r2
 4198 001c 14D0     		beq	.L532
 4199              	.L533:
 4200 001e 2368     		ldr	r3, [r4]
 4201 0020 196A     		ldr	r1, [r3, #32]
 4202 0022 41F21112 		movw	r2, #4369
 4203 0026 1142     		tst	r1, r2
 4204 0028 08D1     		bne	.L534
 4205 002a 196A     		ldr	r1, [r3, #32]
 4206 002c 40F24442 		movw	r2, #1092
 4207 0030 1142     		tst	r1, r2
 4208 0032 03D1     		bne	.L534
 4209 0034 1A68     		ldr	r2, [r3]
 4210 0036 22F00102 		bic	r2, r2, #1
 4211 003a 1A60     		str	r2, [r3]
 4212              	.L534:
 4213 003c 9DB9     		cbnz	r5, .L535
 4214 003e 0123     		movs	r3, #1
 4215 0040 84F83E30 		strb	r3, [r4, #62]
 4216              	.L536:
 4217 0044 0020     		movs	r0, #0
 4218 0046 38BD     		pop	{r3, r4, r5, pc}
 4219              	.L532:
 4220 0048 196A     		ldr	r1, [r3, #32]
 4221 004a 41F21112 		movw	r2, #4369
 4222 004e 1142     		tst	r1, r2
 4223 0050 E5D1     		bne	.L533
 4224 0052 196A     		ldr	r1, [r3, #32]
 4225 0054 40F24442 		movw	r2, #1092
 4226 0058 1142     		tst	r1, r2
 4227 005a E0D1     		bne	.L533
 4228 005c 5A6C     		ldr	r2, [r3, #68]
 4229 005e 22F40042 		bic	r2, r2, #32768
 4230 0062 5A64     		str	r2, [r3, #68]
 4231 0064 DBE7     		b	.L533
 4232              	.L535:
ARM GAS  C:\Users\PNGUBO~1\AppData\Local\Temp\ccYA2Pp6.s 			page 72


 4233 0066 042D     		cmp	r5, #4
 4234 0068 05D0     		beq	.L540
 4235 006a 082D     		cmp	r5, #8
 4236 006c 07D0     		beq	.L541
 4237 006e 0123     		movs	r3, #1
 4238 0070 84F84130 		strb	r3, [r4, #65]
 4239 0074 E6E7     		b	.L536
 4240              	.L540:
 4241 0076 0123     		movs	r3, #1
 4242 0078 84F83F30 		strb	r3, [r4, #63]
 4243 007c E2E7     		b	.L536
 4244              	.L541:
 4245 007e 0123     		movs	r3, #1
 4246 0080 84F84030 		strb	r3, [r4, #64]
 4247 0084 DEE7     		b	.L536
 4248              	.L543:
 4249 0086 00BF     		.align	2
 4250              	.L542:
 4251 0088 00000140 		.word	1073807360
 4253              		.section	.text.HAL_TIM_OC_Start_IT,"ax",%progbits
 4254              		.align	1
 4255              		.global	HAL_TIM_OC_Start_IT
 4256              		.syntax unified
 4257              		.thumb
 4258              		.thumb_func
 4260              	HAL_TIM_OC_Start_IT:
 4261              		@ args = 0, pretend = 0, frame = 0
 4262              		@ frame_needed = 0, uses_anonymous_args = 0
 4263 0000 10B5     		push	{r4, lr}
 4264 0002 0446     		mov	r4, r0
 4265 0004 0846     		mov	r0, r1
 4266 0006 0029     		cmp	r1, #0
 4267 0008 47D1     		bne	.L545
 4268 000a 94F83E30 		ldrb	r3, [r4, #62]	@ zero_extendqisi2
 4269 000e 013B     		subs	r3, r3, #1
 4270 0010 18BF     		it	ne
 4271 0012 0123     		movne	r3, #1
 4272              	.L546:
 4273 0014 002B     		cmp	r3, #0
 4274 0016 40F0A080 		bne	.L563
 4275 001a 0028     		cmp	r0, #0
 4276 001c 53D1     		bne	.L550
 4277 001e 0223     		movs	r3, #2
 4278 0020 84F83E30 		strb	r3, [r4, #62]
 4279              	.L551:
 4280 0024 2268     		ldr	r2, [r4]
 4281 0026 D368     		ldr	r3, [r2, #12]
 4282 0028 43F00203 		orr	r3, r3, #2
 4283 002c D360     		str	r3, [r2, #12]
 4284              	.L558:
 4285 002e 0122     		movs	r2, #1
 4286 0030 0146     		mov	r1, r0
 4287 0032 2068     		ldr	r0, [r4]
 4288 0034 FFF7FEFF 		bl	TIM_CCxChannelCmd
 4289 0038 2368     		ldr	r3, [r4]
 4290 003a 4B4A     		ldr	r2, .L574
 4291 003c 9342     		cmp	r3, r2
ARM GAS  C:\Users\PNGUBO~1\AppData\Local\Temp\ccYA2Pp6.s 			page 73


 4292 003e 03D0     		beq	.L559
 4293 0040 02F58062 		add	r2, r2, #1024
 4294 0044 9342     		cmp	r3, r2
 4295 0046 03D1     		bne	.L560
 4296              	.L559:
 4297 0048 5A6C     		ldr	r2, [r3, #68]
 4298 004a 42F40042 		orr	r2, r2, #32768
 4299 004e 5A64     		str	r2, [r3, #68]
 4300              	.L560:
 4301 0050 2368     		ldr	r3, [r4]
 4302 0052 454A     		ldr	r2, .L574
 4303 0054 9342     		cmp	r3, r2
 4304 0056 75D0     		beq	.L561
 4305 0058 B3F1804F 		cmp	r3, #1073741824
 4306 005c 72D0     		beq	.L561
 4307 005e A2F57C42 		sub	r2, r2, #64512
 4308 0062 9342     		cmp	r3, r2
 4309 0064 6ED0     		beq	.L561
 4310 0066 02F58062 		add	r2, r2, #1024
 4311 006a 9342     		cmp	r3, r2
 4312 006c 6AD0     		beq	.L561
 4313 006e 02F58062 		add	r2, r2, #1024
 4314 0072 9342     		cmp	r3, r2
 4315 0074 66D0     		beq	.L561
 4316 0076 02F57842 		add	r2, r2, #63488
 4317 007a 9342     		cmp	r3, r2
 4318 007c 62D0     		beq	.L561
 4319 007e 02F57052 		add	r2, r2, #15360
 4320 0082 9342     		cmp	r3, r2
 4321 0084 5ED0     		beq	.L561
 4322 0086 A2F59432 		sub	r2, r2, #75776
 4323 008a 9342     		cmp	r3, r2
 4324 008c 5AD0     		beq	.L561
 4325 008e 1A68     		ldr	r2, [r3]
 4326 0090 42F00102 		orr	r2, r2, #1
 4327 0094 1A60     		str	r2, [r3]
 4328 0096 0020     		movs	r0, #0
 4329 0098 5EE0     		b	.L549
 4330              	.L545:
 4331 009a 0429     		cmp	r1, #4
 4332 009c 07D0     		beq	.L570
 4333 009e 0829     		cmp	r1, #8
 4334 00a0 0BD0     		beq	.L571
 4335 00a2 94F84130 		ldrb	r3, [r4, #65]	@ zero_extendqisi2
 4336 00a6 013B     		subs	r3, r3, #1
 4337 00a8 18BF     		it	ne
 4338 00aa 0123     		movne	r3, #1
 4339 00ac B2E7     		b	.L546
 4340              	.L570:
 4341 00ae 94F83F30 		ldrb	r3, [r4, #63]	@ zero_extendqisi2
 4342 00b2 013B     		subs	r3, r3, #1
 4343 00b4 18BF     		it	ne
 4344 00b6 0123     		movne	r3, #1
 4345 00b8 ACE7     		b	.L546
 4346              	.L571:
 4347 00ba 94F84030 		ldrb	r3, [r4, #64]	@ zero_extendqisi2
 4348 00be 013B     		subs	r3, r3, #1
ARM GAS  C:\Users\PNGUBO~1\AppData\Local\Temp\ccYA2Pp6.s 			page 74


 4349 00c0 18BF     		it	ne
 4350 00c2 0123     		movne	r3, #1
 4351 00c4 A6E7     		b	.L546
 4352              	.L550:
 4353 00c6 0428     		cmp	r0, #4
 4354 00c8 24D0     		beq	.L572
 4355 00ca 0828     		cmp	r0, #8
 4356 00cc 2BD0     		beq	.L573
 4357 00ce 0223     		movs	r3, #2
 4358 00d0 84F84130 		strb	r3, [r4, #65]
 4359 00d4 0C28     		cmp	r0, #12
 4360 00d6 42D8     		bhi	.L564
 4361 00d8 01A3     		adr	r3, .L557
 4362 00da 53F820F0 		ldr	pc, [r3, r0, lsl #2]
 4363 00de 00BF     		.p2align 2
 4364              	.L557:
 4365 00e0 25000000 		.word	.L551+1
 4366 00e4 5F010000 		.word	.L564+1
 4367 00e8 5F010000 		.word	.L564+1
 4368 00ec 5F010000 		.word	.L564+1
 4369 00f0 1B010000 		.word	.L553+1
 4370 00f4 5F010000 		.word	.L564+1
 4371 00f8 5F010000 		.word	.L564+1
 4372 00fc 5F010000 		.word	.L564+1
 4373 0100 2D010000 		.word	.L555+1
 4374 0104 5F010000 		.word	.L564+1
 4375 0108 5F010000 		.word	.L564+1
 4376 010c 5F010000 		.word	.L564+1
 4377 0110 39010000 		.word	.L556+1
 4378              		.p2align 1
 4379              	.L572:
 4380 0114 0223     		movs	r3, #2
 4381 0116 84F83F30 		strb	r3, [r4, #63]
 4382              	.L553:
 4383 011a 2268     		ldr	r2, [r4]
 4384 011c D368     		ldr	r3, [r2, #12]
 4385 011e 43F00403 		orr	r3, r3, #4
 4386 0122 D360     		str	r3, [r2, #12]
 4387 0124 83E7     		b	.L558
 4388              	.L573:
 4389 0126 0223     		movs	r3, #2
 4390 0128 84F84030 		strb	r3, [r4, #64]
 4391              	.L555:
 4392 012c 2268     		ldr	r2, [r4]
 4393 012e D368     		ldr	r3, [r2, #12]
 4394 0130 43F00803 		orr	r3, r3, #8
 4395 0134 D360     		str	r3, [r2, #12]
 4396 0136 7AE7     		b	.L558
 4397              	.L556:
 4398 0138 2268     		ldr	r2, [r4]
 4399 013a D368     		ldr	r3, [r2, #12]
 4400 013c 43F01003 		orr	r3, r3, #16
 4401 0140 D360     		str	r3, [r2, #12]
 4402 0142 74E7     		b	.L558
 4403              	.L561:
 4404 0144 9A68     		ldr	r2, [r3, #8]
 4405 0146 02F00702 		and	r2, r2, #7
ARM GAS  C:\Users\PNGUBO~1\AppData\Local\Temp\ccYA2Pp6.s 			page 75


 4406 014a 062A     		cmp	r2, #6
 4407 014c 09D0     		beq	.L565
 4408 014e 1A68     		ldr	r2, [r3]
 4409 0150 42F00102 		orr	r2, r2, #1
 4410 0154 1A60     		str	r2, [r3]
 4411 0156 0020     		movs	r0, #0
 4412              	.L549:
 4413 0158 10BD     		pop	{r4, pc}
 4414              	.L563:
 4415 015a 0120     		movs	r0, #1
 4416 015c FCE7     		b	.L549
 4417              	.L564:
 4418 015e 0120     		movs	r0, #1
 4419 0160 FAE7     		b	.L549
 4420              	.L565:
 4421 0162 0020     		movs	r0, #0
 4422 0164 F8E7     		b	.L549
 4423              	.L575:
 4424 0166 00BF     		.align	2
 4425              	.L574:
 4426 0168 00000140 		.word	1073807360
 4428              		.section	.text.HAL_TIM_OC_Stop_IT,"ax",%progbits
 4429              		.align	1
 4430              		.global	HAL_TIM_OC_Stop_IT
 4431              		.syntax unified
 4432              		.thumb
 4433              		.thumb_func
 4435              	HAL_TIM_OC_Stop_IT:
 4436              		@ args = 0, pretend = 0, frame = 0
 4437              		@ frame_needed = 0, uses_anonymous_args = 0
 4438 0000 38B5     		push	{r3, r4, r5, lr}
 4439 0002 0546     		mov	r5, r0
 4440 0004 0C46     		mov	r4, r1
 4441 0006 0C29     		cmp	r1, #12
 4442 0008 63D8     		bhi	.L590
 4443 000a DFE801F0 		tbb	[pc, r1]
 4444              	.L579:
 4445 000e 07       		.byte	(.L582-.L579)/2
 4446 000f 62       		.byte	(.L590-.L579)/2
 4447 0010 62       		.byte	(.L590-.L579)/2
 4448 0011 62       		.byte	(.L590-.L579)/2
 4449 0012 2E       		.byte	(.L581-.L579)/2
 4450 0013 62       		.byte	(.L590-.L579)/2
 4451 0014 62       		.byte	(.L590-.L579)/2
 4452 0015 62       		.byte	(.L590-.L579)/2
 4453 0016 34       		.byte	(.L580-.L579)/2
 4454 0017 62       		.byte	(.L590-.L579)/2
 4455 0018 62       		.byte	(.L590-.L579)/2
 4456 0019 62       		.byte	(.L590-.L579)/2
 4457 001a 3A       		.byte	(.L578-.L579)/2
 4458 001b 00       		.p2align 1
 4459              	.L582:
 4460 001c 0268     		ldr	r2, [r0]
 4461 001e D368     		ldr	r3, [r2, #12]
 4462 0020 23F00203 		bic	r3, r3, #2
 4463 0024 D360     		str	r3, [r2, #12]
 4464              	.L583:
ARM GAS  C:\Users\PNGUBO~1\AppData\Local\Temp\ccYA2Pp6.s 			page 76


 4465 0026 0022     		movs	r2, #0
 4466 0028 2146     		mov	r1, r4
 4467 002a 2868     		ldr	r0, [r5]
 4468 002c FFF7FEFF 		bl	TIM_CCxChannelCmd
 4469 0030 2B68     		ldr	r3, [r5]
 4470 0032 294A     		ldr	r2, .L594
 4471 0034 9342     		cmp	r3, r2
 4472 0036 2AD0     		beq	.L584
 4473 0038 02F58062 		add	r2, r2, #1024
 4474 003c 9342     		cmp	r3, r2
 4475 003e 26D0     		beq	.L584
 4476              	.L585:
 4477 0040 2B68     		ldr	r3, [r5]
 4478 0042 196A     		ldr	r1, [r3, #32]
 4479 0044 41F21112 		movw	r2, #4369
 4480 0048 1142     		tst	r1, r2
 4481 004a 08D1     		bne	.L586
 4482 004c 196A     		ldr	r1, [r3, #32]
 4483 004e 40F24442 		movw	r2, #1092
 4484 0052 1142     		tst	r1, r2
 4485 0054 03D1     		bne	.L586
 4486 0056 1A68     		ldr	r2, [r3]
 4487 0058 22F00102 		bic	r2, r2, #1
 4488 005c 1A60     		str	r2, [r3]
 4489              	.L586:
 4490 005e 2CBB     		cbnz	r4, .L587
 4491 0060 0123     		movs	r3, #1
 4492 0062 85F83E30 		strb	r3, [r5, #62]
 4493 0066 0020     		movs	r0, #0
 4494 0068 34E0     		b	.L577
 4495              	.L581:
 4496 006a 0268     		ldr	r2, [r0]
 4497 006c D368     		ldr	r3, [r2, #12]
 4498 006e 23F00403 		bic	r3, r3, #4
 4499 0072 D360     		str	r3, [r2, #12]
 4500 0074 D7E7     		b	.L583
 4501              	.L580:
 4502 0076 0268     		ldr	r2, [r0]
 4503 0078 D368     		ldr	r3, [r2, #12]
 4504 007a 23F00803 		bic	r3, r3, #8
 4505 007e D360     		str	r3, [r2, #12]
 4506 0080 D1E7     		b	.L583
 4507              	.L578:
 4508 0082 0268     		ldr	r2, [r0]
 4509 0084 D368     		ldr	r3, [r2, #12]
 4510 0086 23F01003 		bic	r3, r3, #16
 4511 008a D360     		str	r3, [r2, #12]
 4512 008c CBE7     		b	.L583
 4513              	.L584:
 4514 008e 196A     		ldr	r1, [r3, #32]
 4515 0090 41F21112 		movw	r2, #4369
 4516 0094 1142     		tst	r1, r2
 4517 0096 D3D1     		bne	.L585
 4518 0098 196A     		ldr	r1, [r3, #32]
 4519 009a 40F24442 		movw	r2, #1092
 4520 009e 1142     		tst	r1, r2
 4521 00a0 CED1     		bne	.L585
ARM GAS  C:\Users\PNGUBO~1\AppData\Local\Temp\ccYA2Pp6.s 			page 77


 4522 00a2 5A6C     		ldr	r2, [r3, #68]
 4523 00a4 22F40042 		bic	r2, r2, #32768
 4524 00a8 5A64     		str	r2, [r3, #68]
 4525 00aa C9E7     		b	.L585
 4526              	.L587:
 4527 00ac 042C     		cmp	r4, #4
 4528 00ae 06D0     		beq	.L592
 4529 00b0 082C     		cmp	r4, #8
 4530 00b2 09D0     		beq	.L593
 4531 00b4 0123     		movs	r3, #1
 4532 00b6 85F84130 		strb	r3, [r5, #65]
 4533 00ba 0020     		movs	r0, #0
 4534 00bc 0AE0     		b	.L577
 4535              	.L592:
 4536 00be 0123     		movs	r3, #1
 4537 00c0 85F83F30 		strb	r3, [r5, #63]
 4538 00c4 0020     		movs	r0, #0
 4539 00c6 05E0     		b	.L577
 4540              	.L593:
 4541 00c8 0123     		movs	r3, #1
 4542 00ca 85F84030 		strb	r3, [r5, #64]
 4543 00ce 0020     		movs	r0, #0
 4544 00d0 00E0     		b	.L577
 4545              	.L590:
 4546 00d2 0120     		movs	r0, #1
 4547              	.L577:
 4548 00d4 38BD     		pop	{r3, r4, r5, pc}
 4549              	.L595:
 4550 00d6 00BF     		.align	2
 4551              	.L594:
 4552 00d8 00000140 		.word	1073807360
 4554              		.section	.text.HAL_TIM_OC_Start_DMA,"ax",%progbits
 4555              		.align	1
 4556              		.global	HAL_TIM_OC_Start_DMA
 4557              		.syntax unified
 4558              		.thumb
 4559              		.thumb_func
 4561              	HAL_TIM_OC_Start_DMA:
 4562              		@ args = 0, pretend = 0, frame = 0
 4563              		@ frame_needed = 0, uses_anonymous_args = 0
 4564 0000 70B5     		push	{r4, r5, r6, lr}
 4565 0002 0446     		mov	r4, r0
 4566 0004 1646     		mov	r6, r2
 4567 0006 0D46     		mov	r5, r1
 4568 0008 0029     		cmp	r1, #0
 4569 000a 75D1     		bne	.L597
 4570 000c 90F83E00 		ldrb	r0, [r0, #62]	@ zero_extendqisi2
 4571 0010 0228     		cmp	r0, #2
 4572 0012 14BF     		ite	ne
 4573 0014 0020     		movne	r0, #0
 4574 0016 0120     		moveq	r0, #1
 4575              	.L598:
 4576 0018 0028     		cmp	r0, #0
 4577 001a 40F01A81 		bne	.L619
 4578 001e 002D     		cmp	r5, #0
 4579 0020 40F08380 		bne	.L602
 4580 0024 94F83E20 		ldrb	r2, [r4, #62]	@ zero_extendqisi2
ARM GAS  C:\Users\PNGUBO~1\AppData\Local\Temp\ccYA2Pp6.s 			page 78


 4581 0028 012A     		cmp	r2, #1
 4582 002a 14BF     		ite	ne
 4583 002c 0022     		movne	r2, #0
 4584 002e 0122     		moveq	r2, #1
 4585              	.L603:
 4586 0030 002A     		cmp	r2, #0
 4587 0032 00F01081 		beq	.L620
 4588 0036 002E     		cmp	r6, #0
 4589 0038 00F00F81 		beq	.L621
 4590 003c 002B     		cmp	r3, #0
 4591 003e 00F00E81 		beq	.L622
 4592 0042 002D     		cmp	r5, #0
 4593 0044 40F08A80 		bne	.L606
 4594 0048 0222     		movs	r2, #2
 4595 004a 84F83E20 		strb	r2, [r4, #62]
 4596              	.L607:
 4597 004e 626A     		ldr	r2, [r4, #36]
 4598 0050 8A49     		ldr	r1, .L639
 4599 0052 D163     		str	r1, [r2, #60]
 4600 0054 626A     		ldr	r2, [r4, #36]
 4601 0056 8A49     		ldr	r1, .L639+4
 4602 0058 1164     		str	r1, [r2, #64]
 4603 005a 626A     		ldr	r2, [r4, #36]
 4604 005c 8949     		ldr	r1, .L639+8
 4605 005e D164     		str	r1, [r2, #76]
 4606 0060 2268     		ldr	r2, [r4]
 4607 0062 3432     		adds	r2, r2, #52
 4608 0064 3146     		mov	r1, r6
 4609 0066 606A     		ldr	r0, [r4, #36]
 4610 0068 FFF7FEFF 		bl	HAL_DMA_Start_IT
 4611 006c 0028     		cmp	r0, #0
 4612 006e 40F0FA80 		bne	.L624
 4613 0072 2268     		ldr	r2, [r4]
 4614 0074 D368     		ldr	r3, [r2, #12]
 4615 0076 43F40073 		orr	r3, r3, #512
 4616 007a D360     		str	r3, [r2, #12]
 4617              	.L614:
 4618 007c 0122     		movs	r2, #1
 4619 007e 2946     		mov	r1, r5
 4620 0080 2068     		ldr	r0, [r4]
 4621 0082 FFF7FEFF 		bl	TIM_CCxChannelCmd
 4622 0086 2368     		ldr	r3, [r4]
 4623 0088 7F4A     		ldr	r2, .L639+12
 4624 008a 9342     		cmp	r3, r2
 4625 008c 03D0     		beq	.L615
 4626 008e 02F58062 		add	r2, r2, #1024
 4627 0092 9342     		cmp	r3, r2
 4628 0094 03D1     		bne	.L616
 4629              	.L615:
 4630 0096 5A6C     		ldr	r2, [r3, #68]
 4631 0098 42F40042 		orr	r2, r2, #32768
 4632 009c 5A64     		str	r2, [r3, #68]
 4633              	.L616:
 4634 009e 2368     		ldr	r3, [r4]
 4635 00a0 794A     		ldr	r2, .L639+12
 4636 00a2 9342     		cmp	r3, r2
 4637 00a4 00F0CA80 		beq	.L617
ARM GAS  C:\Users\PNGUBO~1\AppData\Local\Temp\ccYA2Pp6.s 			page 79


 4638 00a8 B3F1804F 		cmp	r3, #1073741824
 4639 00ac 00F0C680 		beq	.L617
 4640 00b0 A2F57C42 		sub	r2, r2, #64512
 4641 00b4 9342     		cmp	r3, r2
 4642 00b6 00F0C180 		beq	.L617
 4643 00ba 02F58062 		add	r2, r2, #1024
 4644 00be 9342     		cmp	r3, r2
 4645 00c0 00F0BC80 		beq	.L617
 4646 00c4 02F58062 		add	r2, r2, #1024
 4647 00c8 9342     		cmp	r3, r2
 4648 00ca 00F0B780 		beq	.L617
 4649 00ce 02F57842 		add	r2, r2, #63488
 4650 00d2 9342     		cmp	r3, r2
 4651 00d4 00F0B280 		beq	.L617
 4652 00d8 02F57052 		add	r2, r2, #15360
 4653 00dc 9342     		cmp	r3, r2
 4654 00de 00F0AD80 		beq	.L617
 4655 00e2 A2F59432 		sub	r2, r2, #75776
 4656 00e6 9342     		cmp	r3, r2
 4657 00e8 00F0A880 		beq	.L617
 4658 00ec 1A68     		ldr	r2, [r3]
 4659 00ee 42F00102 		orr	r2, r2, #1
 4660 00f2 1A60     		str	r2, [r3]
 4661 00f4 0020     		movs	r0, #0
 4662 00f6 AFE0     		b	.L601
 4663              	.L597:
 4664 00f8 0429     		cmp	r1, #4
 4665 00fa 08D0     		beq	.L633
 4666 00fc 0829     		cmp	r1, #8
 4667 00fe 0DD0     		beq	.L634
 4668 0100 90F84100 		ldrb	r0, [r0, #65]	@ zero_extendqisi2
 4669 0104 0228     		cmp	r0, #2
 4670 0106 14BF     		ite	ne
 4671 0108 0020     		movne	r0, #0
 4672 010a 0120     		moveq	r0, #1
 4673 010c 84E7     		b	.L598
 4674              	.L633:
 4675 010e 90F83F00 		ldrb	r0, [r0, #63]	@ zero_extendqisi2
 4676 0112 0228     		cmp	r0, #2
 4677 0114 14BF     		ite	ne
 4678 0116 0020     		movne	r0, #0
 4679 0118 0120     		moveq	r0, #1
 4680 011a 7DE7     		b	.L598
 4681              	.L634:
 4682 011c 90F84000 		ldrb	r0, [r0, #64]	@ zero_extendqisi2
 4683 0120 0228     		cmp	r0, #2
 4684 0122 14BF     		ite	ne
 4685 0124 0020     		movne	r0, #0
 4686 0126 0120     		moveq	r0, #1
 4687 0128 76E7     		b	.L598
 4688              	.L602:
 4689 012a 042D     		cmp	r5, #4
 4690 012c 08D0     		beq	.L635
 4691 012e 082D     		cmp	r5, #8
 4692 0130 0DD0     		beq	.L636
 4693 0132 94F84120 		ldrb	r2, [r4, #65]	@ zero_extendqisi2
 4694 0136 012A     		cmp	r2, #1
ARM GAS  C:\Users\PNGUBO~1\AppData\Local\Temp\ccYA2Pp6.s 			page 80


 4695 0138 14BF     		ite	ne
 4696 013a 0022     		movne	r2, #0
 4697 013c 0122     		moveq	r2, #1
 4698 013e 77E7     		b	.L603
 4699              	.L635:
 4700 0140 94F83F20 		ldrb	r2, [r4, #63]	@ zero_extendqisi2
 4701 0144 012A     		cmp	r2, #1
 4702 0146 14BF     		ite	ne
 4703 0148 0022     		movne	r2, #0
 4704 014a 0122     		moveq	r2, #1
 4705 014c 70E7     		b	.L603
 4706              	.L636:
 4707 014e 94F84020 		ldrb	r2, [r4, #64]	@ zero_extendqisi2
 4708 0152 012A     		cmp	r2, #1
 4709 0154 14BF     		ite	ne
 4710 0156 0022     		movne	r2, #0
 4711 0158 0122     		moveq	r2, #1
 4712 015a 69E7     		b	.L603
 4713              	.L606:
 4714 015c 042D     		cmp	r5, #4
 4715 015e 23D0     		beq	.L637
 4716 0160 082D     		cmp	r5, #8
 4717 0162 3BD0     		beq	.L638
 4718 0164 0222     		movs	r2, #2
 4719 0166 84F84120 		strb	r2, [r4, #65]
 4720 016a 0C2D     		cmp	r5, #12
 4721 016c 79D8     		bhi	.L623
 4722 016e 01A2     		adr	r2, .L613
 4723 0170 52F825F0 		ldr	pc, [r2, r5, lsl #2]
 4724              		.p2align 2
 4725              	.L613:
 4726 0174 4F000000 		.word	.L607+1
 4727 0178 63020000 		.word	.L623+1
 4728 017c 63020000 		.word	.L623+1
 4729 0180 63020000 		.word	.L623+1
 4730 0184 AF010000 		.word	.L609+1
 4731 0188 63020000 		.word	.L623+1
 4732 018c 63020000 		.word	.L623+1
 4733 0190 63020000 		.word	.L623+1
 4734 0194 E3010000 		.word	.L611+1
 4735 0198 63020000 		.word	.L623+1
 4736 019c 63020000 		.word	.L623+1
 4737 01a0 63020000 		.word	.L623+1
 4738 01a4 11020000 		.word	.L612+1
 4739              		.p2align 1
 4740              	.L637:
 4741 01a8 0222     		movs	r2, #2
 4742 01aa 84F83F20 		strb	r2, [r4, #63]
 4743              	.L609:
 4744 01ae A26A     		ldr	r2, [r4, #40]
 4745 01b0 3249     		ldr	r1, .L639
 4746 01b2 D163     		str	r1, [r2, #60]
 4747 01b4 A26A     		ldr	r2, [r4, #40]
 4748 01b6 3249     		ldr	r1, .L639+4
 4749 01b8 1164     		str	r1, [r2, #64]
 4750 01ba A26A     		ldr	r2, [r4, #40]
 4751 01bc 3149     		ldr	r1, .L639+8
ARM GAS  C:\Users\PNGUBO~1\AppData\Local\Temp\ccYA2Pp6.s 			page 81


 4752 01be D164     		str	r1, [r2, #76]
 4753 01c0 2268     		ldr	r2, [r4]
 4754 01c2 3832     		adds	r2, r2, #56
 4755 01c4 3146     		mov	r1, r6
 4756 01c6 A06A     		ldr	r0, [r4, #40]
 4757 01c8 FFF7FEFF 		bl	HAL_DMA_Start_IT
 4758 01cc 0028     		cmp	r0, #0
 4759 01ce 4CD1     		bne	.L625
 4760 01d0 2268     		ldr	r2, [r4]
 4761 01d2 D368     		ldr	r3, [r2, #12]
 4762 01d4 43F48063 		orr	r3, r3, #1024
 4763 01d8 D360     		str	r3, [r2, #12]
 4764 01da 4FE7     		b	.L614
 4765              	.L638:
 4766 01dc 0222     		movs	r2, #2
 4767 01de 84F84020 		strb	r2, [r4, #64]
 4768              	.L611:
 4769 01e2 E26A     		ldr	r2, [r4, #44]
 4770 01e4 2549     		ldr	r1, .L639
 4771 01e6 D163     		str	r1, [r2, #60]
 4772 01e8 E26A     		ldr	r2, [r4, #44]
 4773 01ea 2549     		ldr	r1, .L639+4
 4774 01ec 1164     		str	r1, [r2, #64]
 4775 01ee E26A     		ldr	r2, [r4, #44]
 4776 01f0 2449     		ldr	r1, .L639+8
 4777 01f2 D164     		str	r1, [r2, #76]
 4778 01f4 2268     		ldr	r2, [r4]
 4779 01f6 3C32     		adds	r2, r2, #60
 4780 01f8 3146     		mov	r1, r6
 4781 01fa E06A     		ldr	r0, [r4, #44]
 4782 01fc FFF7FEFF 		bl	HAL_DMA_Start_IT
 4783 0200 0028     		cmp	r0, #0
 4784 0202 34D1     		bne	.L626
 4785 0204 2268     		ldr	r2, [r4]
 4786 0206 D368     		ldr	r3, [r2, #12]
 4787 0208 43F40063 		orr	r3, r3, #2048
 4788 020c D360     		str	r3, [r2, #12]
 4789 020e 35E7     		b	.L614
 4790              	.L612:
 4791 0210 226B     		ldr	r2, [r4, #48]
 4792 0212 1A49     		ldr	r1, .L639
 4793 0214 D163     		str	r1, [r2, #60]
 4794 0216 226B     		ldr	r2, [r4, #48]
 4795 0218 1949     		ldr	r1, .L639+4
 4796 021a 1164     		str	r1, [r2, #64]
 4797 021c 226B     		ldr	r2, [r4, #48]
 4798 021e 1949     		ldr	r1, .L639+8
 4799 0220 D164     		str	r1, [r2, #76]
 4800 0222 2268     		ldr	r2, [r4]
 4801 0224 4032     		adds	r2, r2, #64
 4802 0226 3146     		mov	r1, r6
 4803 0228 206B     		ldr	r0, [r4, #48]
 4804 022a FFF7FEFF 		bl	HAL_DMA_Start_IT
 4805 022e 00BB     		cbnz	r0, .L627
 4806 0230 2268     		ldr	r2, [r4]
 4807 0232 D368     		ldr	r3, [r2, #12]
 4808 0234 43F48053 		orr	r3, r3, #4096
ARM GAS  C:\Users\PNGUBO~1\AppData\Local\Temp\ccYA2Pp6.s 			page 82


 4809 0238 D360     		str	r3, [r2, #12]
 4810 023a 1FE7     		b	.L614
 4811              	.L617:
 4812 023c 9A68     		ldr	r2, [r3, #8]
 4813 023e 02F00702 		and	r2, r2, #7
 4814 0242 062A     		cmp	r2, #6
 4815 0244 17D0     		beq	.L628
 4816 0246 1A68     		ldr	r2, [r3]
 4817 0248 42F00102 		orr	r2, r2, #1
 4818 024c 1A60     		str	r2, [r3]
 4819 024e 0020     		movs	r0, #0
 4820 0250 02E0     		b	.L601
 4821              	.L619:
 4822 0252 0220     		movs	r0, #2
 4823 0254 00E0     		b	.L601
 4824              	.L620:
 4825 0256 0120     		movs	r0, #1
 4826              	.L601:
 4827 0258 70BD     		pop	{r4, r5, r6, pc}
 4828              	.L621:
 4829 025a 0120     		movs	r0, #1
 4830 025c FCE7     		b	.L601
 4831              	.L622:
 4832 025e 0120     		movs	r0, #1
 4833 0260 FAE7     		b	.L601
 4834              	.L623:
 4835 0262 0120     		movs	r0, #1
 4836 0264 F8E7     		b	.L601
 4837              	.L624:
 4838 0266 0120     		movs	r0, #1
 4839 0268 F6E7     		b	.L601
 4840              	.L625:
 4841 026a 0120     		movs	r0, #1
 4842 026c F4E7     		b	.L601
 4843              	.L626:
 4844 026e 0120     		movs	r0, #1
 4845 0270 F2E7     		b	.L601
 4846              	.L627:
 4847 0272 0120     		movs	r0, #1
 4848 0274 F0E7     		b	.L601
 4849              	.L628:
 4850 0276 0020     		movs	r0, #0
 4851 0278 EEE7     		b	.L601
 4852              	.L640:
 4853 027a 00BF     		.align	2
 4854              	.L639:
 4855 027c 00000000 		.word	TIM_DMADelayPulseCplt
 4856 0280 00000000 		.word	TIM_DMADelayPulseHalfCplt
 4857 0284 00000000 		.word	TIM_DMAError
 4858 0288 00000140 		.word	1073807360
 4860              		.section	.text.HAL_TIM_OC_Stop_DMA,"ax",%progbits
 4861              		.align	1
 4862              		.global	HAL_TIM_OC_Stop_DMA
 4863              		.syntax unified
 4864              		.thumb
 4865              		.thumb_func
 4867              	HAL_TIM_OC_Stop_DMA:
ARM GAS  C:\Users\PNGUBO~1\AppData\Local\Temp\ccYA2Pp6.s 			page 83


 4868              		@ args = 0, pretend = 0, frame = 0
 4869              		@ frame_needed = 0, uses_anonymous_args = 0
 4870 0000 38B5     		push	{r3, r4, r5, lr}
 4871 0002 0546     		mov	r5, r0
 4872 0004 0C46     		mov	r4, r1
 4873 0006 0C29     		cmp	r1, #12
 4874 0008 70D8     		bhi	.L655
 4875 000a DFE801F0 		tbb	[pc, r1]
 4876              	.L644:
 4877 000e 07       		.byte	(.L647-.L644)/2
 4878 000f 6F       		.byte	(.L655-.L644)/2
 4879 0010 6F       		.byte	(.L655-.L644)/2
 4880 0011 6F       		.byte	(.L655-.L644)/2
 4881 0012 32       		.byte	(.L646-.L644)/2
 4882 0013 6F       		.byte	(.L655-.L644)/2
 4883 0014 6F       		.byte	(.L655-.L644)/2
 4884 0015 6F       		.byte	(.L655-.L644)/2
 4885 0016 3B       		.byte	(.L645-.L644)/2
 4886 0017 6F       		.byte	(.L655-.L644)/2
 4887 0018 6F       		.byte	(.L655-.L644)/2
 4888 0019 6F       		.byte	(.L655-.L644)/2
 4889 001a 44       		.byte	(.L643-.L644)/2
 4890 001b 00       		.p2align 1
 4891              	.L647:
 4892 001c 0268     		ldr	r2, [r0]
 4893 001e D368     		ldr	r3, [r2, #12]
 4894 0020 23F40073 		bic	r3, r3, #512
 4895 0024 D360     		str	r3, [r2, #12]
 4896 0026 406A     		ldr	r0, [r0, #36]
 4897 0028 FFF7FEFF 		bl	HAL_DMA_Abort_IT
 4898              	.L648:
 4899 002c 0022     		movs	r2, #0
 4900 002e 2146     		mov	r1, r4
 4901 0030 2868     		ldr	r0, [r5]
 4902 0032 FFF7FEFF 		bl	TIM_CCxChannelCmd
 4903 0036 2B68     		ldr	r3, [r5]
 4904 0038 2D4A     		ldr	r2, .L659
 4905 003a 9342     		cmp	r3, r2
 4906 003c 34D0     		beq	.L649
 4907 003e 02F58062 		add	r2, r2, #1024
 4908 0042 9342     		cmp	r3, r2
 4909 0044 30D0     		beq	.L649
 4910              	.L650:
 4911 0046 2B68     		ldr	r3, [r5]
 4912 0048 196A     		ldr	r1, [r3, #32]
 4913 004a 41F21112 		movw	r2, #4369
 4914 004e 1142     		tst	r1, r2
 4915 0050 08D1     		bne	.L651
 4916 0052 196A     		ldr	r1, [r3, #32]
 4917 0054 40F24442 		movw	r2, #1092
 4918 0058 1142     		tst	r1, r2
 4919 005a 03D1     		bne	.L651
 4920 005c 1A68     		ldr	r2, [r3]
 4921 005e 22F00102 		bic	r2, r2, #1
 4922 0062 1A60     		str	r2, [r3]
 4923              	.L651:
 4924 0064 002C     		cmp	r4, #0
ARM GAS  C:\Users\PNGUBO~1\AppData\Local\Temp\ccYA2Pp6.s 			page 84


 4925 0066 2ED1     		bne	.L652
 4926 0068 0123     		movs	r3, #1
 4927 006a 85F83E30 		strb	r3, [r5, #62]
 4928 006e 0020     		movs	r0, #0
 4929 0070 3DE0     		b	.L642
 4930              	.L646:
 4931 0072 0268     		ldr	r2, [r0]
 4932 0074 D368     		ldr	r3, [r2, #12]
 4933 0076 23F48063 		bic	r3, r3, #1024
 4934 007a D360     		str	r3, [r2, #12]
 4935 007c 806A     		ldr	r0, [r0, #40]
 4936 007e FFF7FEFF 		bl	HAL_DMA_Abort_IT
 4937 0082 D3E7     		b	.L648
 4938              	.L645:
 4939 0084 0268     		ldr	r2, [r0]
 4940 0086 D368     		ldr	r3, [r2, #12]
 4941 0088 23F40063 		bic	r3, r3, #2048
 4942 008c D360     		str	r3, [r2, #12]
 4943 008e C06A     		ldr	r0, [r0, #44]
 4944 0090 FFF7FEFF 		bl	HAL_DMA_Abort_IT
 4945 0094 CAE7     		b	.L648
 4946              	.L643:
 4947 0096 0268     		ldr	r2, [r0]
 4948 0098 D368     		ldr	r3, [r2, #12]
 4949 009a 23F48053 		bic	r3, r3, #4096
 4950 009e D360     		str	r3, [r2, #12]
 4951 00a0 006B     		ldr	r0, [r0, #48]
 4952 00a2 FFF7FEFF 		bl	HAL_DMA_Abort_IT
 4953 00a6 C1E7     		b	.L648
 4954              	.L649:
 4955 00a8 196A     		ldr	r1, [r3, #32]
 4956 00aa 41F21112 		movw	r2, #4369
 4957 00ae 1142     		tst	r1, r2
 4958 00b0 C9D1     		bne	.L650
 4959 00b2 196A     		ldr	r1, [r3, #32]
 4960 00b4 40F24442 		movw	r2, #1092
 4961 00b8 1142     		tst	r1, r2
 4962 00ba C4D1     		bne	.L650
 4963 00bc 5A6C     		ldr	r2, [r3, #68]
 4964 00be 22F40042 		bic	r2, r2, #32768
 4965 00c2 5A64     		str	r2, [r3, #68]
 4966 00c4 BFE7     		b	.L650
 4967              	.L652:
 4968 00c6 042C     		cmp	r4, #4
 4969 00c8 06D0     		beq	.L657
 4970 00ca 082C     		cmp	r4, #8
 4971 00cc 09D0     		beq	.L658
 4972 00ce 0123     		movs	r3, #1
 4973 00d0 85F84130 		strb	r3, [r5, #65]
 4974 00d4 0020     		movs	r0, #0
 4975 00d6 0AE0     		b	.L642
 4976              	.L657:
 4977 00d8 0123     		movs	r3, #1
 4978 00da 85F83F30 		strb	r3, [r5, #63]
 4979 00de 0020     		movs	r0, #0
 4980 00e0 05E0     		b	.L642
 4981              	.L658:
ARM GAS  C:\Users\PNGUBO~1\AppData\Local\Temp\ccYA2Pp6.s 			page 85


 4982 00e2 0123     		movs	r3, #1
 4983 00e4 85F84030 		strb	r3, [r5, #64]
 4984 00e8 0020     		movs	r0, #0
 4985 00ea 00E0     		b	.L642
 4986              	.L655:
 4987 00ec 0120     		movs	r0, #1
 4988              	.L642:
 4989 00ee 38BD     		pop	{r3, r4, r5, pc}
 4990              	.L660:
 4991              		.align	2
 4992              	.L659:
 4993 00f0 00000140 		.word	1073807360
 4995              		.section	.text.HAL_TIM_PWM_Start,"ax",%progbits
 4996              		.align	1
 4997              		.global	HAL_TIM_PWM_Start
 4998              		.syntax unified
 4999              		.thumb
 5000              		.thumb_func
 5002              	HAL_TIM_PWM_Start:
 5003              		@ args = 0, pretend = 0, frame = 0
 5004              		@ frame_needed = 0, uses_anonymous_args = 0
 5005 0000 10B5     		push	{r4, lr}
 5006 0002 0446     		mov	r4, r0
 5007 0004 0846     		mov	r0, r1
 5008 0006 0029     		cmp	r1, #0
 5009 0008 41D1     		bne	.L662
 5010 000a 94F83E30 		ldrb	r3, [r4, #62]	@ zero_extendqisi2
 5011 000e 013B     		subs	r3, r3, #1
 5012 0010 18BF     		it	ne
 5013 0012 0123     		movne	r3, #1
 5014              	.L663:
 5015 0014 002B     		cmp	r3, #0
 5016 0016 6BD1     		bne	.L675
 5017 0018 0028     		cmp	r0, #0
 5018 001a 4ED1     		bne	.L667
 5019 001c 0223     		movs	r3, #2
 5020 001e 84F83E30 		strb	r3, [r4, #62]
 5021              	.L668:
 5022 0022 0122     		movs	r2, #1
 5023 0024 0146     		mov	r1, r0
 5024 0026 2068     		ldr	r0, [r4]
 5025 0028 FFF7FEFF 		bl	TIM_CCxChannelCmd
 5026 002c 2368     		ldr	r3, [r4]
 5027 002e 324A     		ldr	r2, .L682
 5028 0030 9342     		cmp	r3, r2
 5029 0032 03D0     		beq	.L671
 5030 0034 02F58062 		add	r2, r2, #1024
 5031 0038 9342     		cmp	r3, r2
 5032 003a 03D1     		bne	.L672
 5033              	.L671:
 5034 003c 5A6C     		ldr	r2, [r3, #68]
 5035 003e 42F40042 		orr	r2, r2, #32768
 5036 0042 5A64     		str	r2, [r3, #68]
 5037              	.L672:
 5038 0044 2368     		ldr	r3, [r4]
 5039 0046 2C4A     		ldr	r2, .L682
 5040 0048 9342     		cmp	r3, r2
ARM GAS  C:\Users\PNGUBO~1\AppData\Local\Temp\ccYA2Pp6.s 			page 86


 5041 004a 46D0     		beq	.L673
 5042 004c B3F1804F 		cmp	r3, #1073741824
 5043 0050 43D0     		beq	.L673
 5044 0052 A2F57C42 		sub	r2, r2, #64512
 5045 0056 9342     		cmp	r3, r2
 5046 0058 3FD0     		beq	.L673
 5047 005a 02F58062 		add	r2, r2, #1024
 5048 005e 9342     		cmp	r3, r2
 5049 0060 3BD0     		beq	.L673
 5050 0062 02F58062 		add	r2, r2, #1024
 5051 0066 9342     		cmp	r3, r2
 5052 0068 37D0     		beq	.L673
 5053 006a 02F57842 		add	r2, r2, #63488
 5054 006e 9342     		cmp	r3, r2
 5055 0070 33D0     		beq	.L673
 5056 0072 02F57052 		add	r2, r2, #15360
 5057 0076 9342     		cmp	r3, r2
 5058 0078 2FD0     		beq	.L673
 5059 007a A2F59432 		sub	r2, r2, #75776
 5060 007e 9342     		cmp	r3, r2
 5061 0080 2BD0     		beq	.L673
 5062 0082 1A68     		ldr	r2, [r3]
 5063 0084 42F00102 		orr	r2, r2, #1
 5064 0088 1A60     		str	r2, [r3]
 5065 008a 0020     		movs	r0, #0
 5066 008c 2FE0     		b	.L666
 5067              	.L662:
 5068 008e 0429     		cmp	r1, #4
 5069 0090 07D0     		beq	.L678
 5070 0092 0829     		cmp	r1, #8
 5071 0094 0BD0     		beq	.L679
 5072 0096 94F84130 		ldrb	r3, [r4, #65]	@ zero_extendqisi2
 5073 009a 013B     		subs	r3, r3, #1
 5074 009c 18BF     		it	ne
 5075 009e 0123     		movne	r3, #1
 5076 00a0 B8E7     		b	.L663
 5077              	.L678:
 5078 00a2 94F83F30 		ldrb	r3, [r4, #63]	@ zero_extendqisi2
 5079 00a6 013B     		subs	r3, r3, #1
 5080 00a8 18BF     		it	ne
 5081 00aa 0123     		movne	r3, #1
 5082 00ac B2E7     		b	.L663
 5083              	.L679:
 5084 00ae 94F84030 		ldrb	r3, [r4, #64]	@ zero_extendqisi2
 5085 00b2 013B     		subs	r3, r3, #1
 5086 00b4 18BF     		it	ne
 5087 00b6 0123     		movne	r3, #1
 5088 00b8 ACE7     		b	.L663
 5089              	.L667:
 5090 00ba 0428     		cmp	r0, #4
 5091 00bc 05D0     		beq	.L680
 5092 00be 0828     		cmp	r0, #8
 5093 00c0 07D0     		beq	.L681
 5094 00c2 0223     		movs	r3, #2
 5095 00c4 84F84130 		strb	r3, [r4, #65]
 5096 00c8 ABE7     		b	.L668
 5097              	.L680:
ARM GAS  C:\Users\PNGUBO~1\AppData\Local\Temp\ccYA2Pp6.s 			page 87


 5098 00ca 0223     		movs	r3, #2
 5099 00cc 84F83F30 		strb	r3, [r4, #63]
 5100 00d0 A7E7     		b	.L668
 5101              	.L681:
 5102 00d2 0223     		movs	r3, #2
 5103 00d4 84F84030 		strb	r3, [r4, #64]
 5104 00d8 A3E7     		b	.L668
 5105              	.L673:
 5106 00da 9A68     		ldr	r2, [r3, #8]
 5107 00dc 02F00702 		and	r2, r2, #7
 5108 00e0 062A     		cmp	r2, #6
 5109 00e2 07D0     		beq	.L676
 5110 00e4 1A68     		ldr	r2, [r3]
 5111 00e6 42F00102 		orr	r2, r2, #1
 5112 00ea 1A60     		str	r2, [r3]
 5113 00ec 0020     		movs	r0, #0
 5114              	.L666:
 5115 00ee 10BD     		pop	{r4, pc}
 5116              	.L675:
 5117 00f0 0120     		movs	r0, #1
 5118 00f2 FCE7     		b	.L666
 5119              	.L676:
 5120 00f4 0020     		movs	r0, #0
 5121 00f6 FAE7     		b	.L666
 5122              	.L683:
 5123              		.align	2
 5124              	.L682:
 5125 00f8 00000140 		.word	1073807360
 5127              		.section	.text.HAL_TIM_PWM_Stop,"ax",%progbits
 5128              		.align	1
 5129              		.global	HAL_TIM_PWM_Stop
 5130              		.syntax unified
 5131              		.thumb
 5132              		.thumb_func
 5134              	HAL_TIM_PWM_Stop:
 5135              		@ args = 0, pretend = 0, frame = 0
 5136              		@ frame_needed = 0, uses_anonymous_args = 0
 5137 0000 38B5     		push	{r3, r4, r5, lr}
 5138 0002 0446     		mov	r4, r0
 5139 0004 0D46     		mov	r5, r1
 5140 0006 0022     		movs	r2, #0
 5141 0008 0068     		ldr	r0, [r0]
 5142 000a FFF7FEFF 		bl	TIM_CCxChannelCmd
 5143 000e 2368     		ldr	r3, [r4]
 5144 0010 1D4A     		ldr	r2, .L695
 5145 0012 9342     		cmp	r3, r2
 5146 0014 18D0     		beq	.L685
 5147 0016 02F58062 		add	r2, r2, #1024
 5148 001a 9342     		cmp	r3, r2
 5149 001c 14D0     		beq	.L685
 5150              	.L686:
 5151 001e 2368     		ldr	r3, [r4]
 5152 0020 196A     		ldr	r1, [r3, #32]
 5153 0022 41F21112 		movw	r2, #4369
 5154 0026 1142     		tst	r1, r2
 5155 0028 08D1     		bne	.L687
 5156 002a 196A     		ldr	r1, [r3, #32]
ARM GAS  C:\Users\PNGUBO~1\AppData\Local\Temp\ccYA2Pp6.s 			page 88


 5157 002c 40F24442 		movw	r2, #1092
 5158 0030 1142     		tst	r1, r2
 5159 0032 03D1     		bne	.L687
 5160 0034 1A68     		ldr	r2, [r3]
 5161 0036 22F00102 		bic	r2, r2, #1
 5162 003a 1A60     		str	r2, [r3]
 5163              	.L687:
 5164 003c 9DB9     		cbnz	r5, .L688
 5165 003e 0123     		movs	r3, #1
 5166 0040 84F83E30 		strb	r3, [r4, #62]
 5167              	.L689:
 5168 0044 0020     		movs	r0, #0
 5169 0046 38BD     		pop	{r3, r4, r5, pc}
 5170              	.L685:
 5171 0048 196A     		ldr	r1, [r3, #32]
 5172 004a 41F21112 		movw	r2, #4369
 5173 004e 1142     		tst	r1, r2
 5174 0050 E5D1     		bne	.L686
 5175 0052 196A     		ldr	r1, [r3, #32]
 5176 0054 40F24442 		movw	r2, #1092
 5177 0058 1142     		tst	r1, r2
 5178 005a E0D1     		bne	.L686
 5179 005c 5A6C     		ldr	r2, [r3, #68]
 5180 005e 22F40042 		bic	r2, r2, #32768
 5181 0062 5A64     		str	r2, [r3, #68]
 5182 0064 DBE7     		b	.L686
 5183              	.L688:
 5184 0066 042D     		cmp	r5, #4
 5185 0068 05D0     		beq	.L693
 5186 006a 082D     		cmp	r5, #8
 5187 006c 07D0     		beq	.L694
 5188 006e 0123     		movs	r3, #1
 5189 0070 84F84130 		strb	r3, [r4, #65]
 5190 0074 E6E7     		b	.L689
 5191              	.L693:
 5192 0076 0123     		movs	r3, #1
 5193 0078 84F83F30 		strb	r3, [r4, #63]
 5194 007c E2E7     		b	.L689
 5195              	.L694:
 5196 007e 0123     		movs	r3, #1
 5197 0080 84F84030 		strb	r3, [r4, #64]
 5198 0084 DEE7     		b	.L689
 5199              	.L696:
 5200 0086 00BF     		.align	2
 5201              	.L695:
 5202 0088 00000140 		.word	1073807360
 5204              		.section	.text.HAL_TIM_PWM_Start_IT,"ax",%progbits
 5205              		.align	1
 5206              		.global	HAL_TIM_PWM_Start_IT
 5207              		.syntax unified
 5208              		.thumb
 5209              		.thumb_func
 5211              	HAL_TIM_PWM_Start_IT:
 5212              		@ args = 0, pretend = 0, frame = 0
 5213              		@ frame_needed = 0, uses_anonymous_args = 0
 5214 0000 10B5     		push	{r4, lr}
 5215 0002 0446     		mov	r4, r0
ARM GAS  C:\Users\PNGUBO~1\AppData\Local\Temp\ccYA2Pp6.s 			page 89


 5216 0004 0846     		mov	r0, r1
 5217 0006 0029     		cmp	r1, #0
 5218 0008 47D1     		bne	.L698
 5219 000a 94F83E30 		ldrb	r3, [r4, #62]	@ zero_extendqisi2
 5220 000e 013B     		subs	r3, r3, #1
 5221 0010 18BF     		it	ne
 5222 0012 0123     		movne	r3, #1
 5223              	.L699:
 5224 0014 002B     		cmp	r3, #0
 5225 0016 40F0A080 		bne	.L716
 5226 001a 0028     		cmp	r0, #0
 5227 001c 53D1     		bne	.L703
 5228 001e 0223     		movs	r3, #2
 5229 0020 84F83E30 		strb	r3, [r4, #62]
 5230              	.L704:
 5231 0024 2268     		ldr	r2, [r4]
 5232 0026 D368     		ldr	r3, [r2, #12]
 5233 0028 43F00203 		orr	r3, r3, #2
 5234 002c D360     		str	r3, [r2, #12]
 5235              	.L711:
 5236 002e 0122     		movs	r2, #1
 5237 0030 0146     		mov	r1, r0
 5238 0032 2068     		ldr	r0, [r4]
 5239 0034 FFF7FEFF 		bl	TIM_CCxChannelCmd
 5240 0038 2368     		ldr	r3, [r4]
 5241 003a 4B4A     		ldr	r2, .L727
 5242 003c 9342     		cmp	r3, r2
 5243 003e 03D0     		beq	.L712
 5244 0040 02F58062 		add	r2, r2, #1024
 5245 0044 9342     		cmp	r3, r2
 5246 0046 03D1     		bne	.L713
 5247              	.L712:
 5248 0048 5A6C     		ldr	r2, [r3, #68]
 5249 004a 42F40042 		orr	r2, r2, #32768
 5250 004e 5A64     		str	r2, [r3, #68]
 5251              	.L713:
 5252 0050 2368     		ldr	r3, [r4]
 5253 0052 454A     		ldr	r2, .L727
 5254 0054 9342     		cmp	r3, r2
 5255 0056 75D0     		beq	.L714
 5256 0058 B3F1804F 		cmp	r3, #1073741824
 5257 005c 72D0     		beq	.L714
 5258 005e A2F57C42 		sub	r2, r2, #64512
 5259 0062 9342     		cmp	r3, r2
 5260 0064 6ED0     		beq	.L714
 5261 0066 02F58062 		add	r2, r2, #1024
 5262 006a 9342     		cmp	r3, r2
 5263 006c 6AD0     		beq	.L714
 5264 006e 02F58062 		add	r2, r2, #1024
 5265 0072 9342     		cmp	r3, r2
 5266 0074 66D0     		beq	.L714
 5267 0076 02F57842 		add	r2, r2, #63488
 5268 007a 9342     		cmp	r3, r2
 5269 007c 62D0     		beq	.L714
 5270 007e 02F57052 		add	r2, r2, #15360
 5271 0082 9342     		cmp	r3, r2
 5272 0084 5ED0     		beq	.L714
ARM GAS  C:\Users\PNGUBO~1\AppData\Local\Temp\ccYA2Pp6.s 			page 90


 5273 0086 A2F59432 		sub	r2, r2, #75776
 5274 008a 9342     		cmp	r3, r2
 5275 008c 5AD0     		beq	.L714
 5276 008e 1A68     		ldr	r2, [r3]
 5277 0090 42F00102 		orr	r2, r2, #1
 5278 0094 1A60     		str	r2, [r3]
 5279 0096 0020     		movs	r0, #0
 5280 0098 5EE0     		b	.L702
 5281              	.L698:
 5282 009a 0429     		cmp	r1, #4
 5283 009c 07D0     		beq	.L723
 5284 009e 0829     		cmp	r1, #8
 5285 00a0 0BD0     		beq	.L724
 5286 00a2 94F84130 		ldrb	r3, [r4, #65]	@ zero_extendqisi2
 5287 00a6 013B     		subs	r3, r3, #1
 5288 00a8 18BF     		it	ne
 5289 00aa 0123     		movne	r3, #1
 5290 00ac B2E7     		b	.L699
 5291              	.L723:
 5292 00ae 94F83F30 		ldrb	r3, [r4, #63]	@ zero_extendqisi2
 5293 00b2 013B     		subs	r3, r3, #1
 5294 00b4 18BF     		it	ne
 5295 00b6 0123     		movne	r3, #1
 5296 00b8 ACE7     		b	.L699
 5297              	.L724:
 5298 00ba 94F84030 		ldrb	r3, [r4, #64]	@ zero_extendqisi2
 5299 00be 013B     		subs	r3, r3, #1
 5300 00c0 18BF     		it	ne
 5301 00c2 0123     		movne	r3, #1
 5302 00c4 A6E7     		b	.L699
 5303              	.L703:
 5304 00c6 0428     		cmp	r0, #4
 5305 00c8 24D0     		beq	.L725
 5306 00ca 0828     		cmp	r0, #8
 5307 00cc 2BD0     		beq	.L726
 5308 00ce 0223     		movs	r3, #2
 5309 00d0 84F84130 		strb	r3, [r4, #65]
 5310 00d4 0C28     		cmp	r0, #12
 5311 00d6 42D8     		bhi	.L717
 5312 00d8 01A3     		adr	r3, .L710
 5313 00da 53F820F0 		ldr	pc, [r3, r0, lsl #2]
 5314 00de 00BF     		.p2align 2
 5315              	.L710:
 5316 00e0 25000000 		.word	.L704+1
 5317 00e4 5F010000 		.word	.L717+1
 5318 00e8 5F010000 		.word	.L717+1
 5319 00ec 5F010000 		.word	.L717+1
 5320 00f0 1B010000 		.word	.L706+1
 5321 00f4 5F010000 		.word	.L717+1
 5322 00f8 5F010000 		.word	.L717+1
 5323 00fc 5F010000 		.word	.L717+1
 5324 0100 2D010000 		.word	.L708+1
 5325 0104 5F010000 		.word	.L717+1
 5326 0108 5F010000 		.word	.L717+1
 5327 010c 5F010000 		.word	.L717+1
 5328 0110 39010000 		.word	.L709+1
 5329              		.p2align 1
ARM GAS  C:\Users\PNGUBO~1\AppData\Local\Temp\ccYA2Pp6.s 			page 91


 5330              	.L725:
 5331 0114 0223     		movs	r3, #2
 5332 0116 84F83F30 		strb	r3, [r4, #63]
 5333              	.L706:
 5334 011a 2268     		ldr	r2, [r4]
 5335 011c D368     		ldr	r3, [r2, #12]
 5336 011e 43F00403 		orr	r3, r3, #4
 5337 0122 D360     		str	r3, [r2, #12]
 5338 0124 83E7     		b	.L711
 5339              	.L726:
 5340 0126 0223     		movs	r3, #2
 5341 0128 84F84030 		strb	r3, [r4, #64]
 5342              	.L708:
 5343 012c 2268     		ldr	r2, [r4]
 5344 012e D368     		ldr	r3, [r2, #12]
 5345 0130 43F00803 		orr	r3, r3, #8
 5346 0134 D360     		str	r3, [r2, #12]
 5347 0136 7AE7     		b	.L711
 5348              	.L709:
 5349 0138 2268     		ldr	r2, [r4]
 5350 013a D368     		ldr	r3, [r2, #12]
 5351 013c 43F01003 		orr	r3, r3, #16
 5352 0140 D360     		str	r3, [r2, #12]
 5353 0142 74E7     		b	.L711
 5354              	.L714:
 5355 0144 9A68     		ldr	r2, [r3, #8]
 5356 0146 02F00702 		and	r2, r2, #7
 5357 014a 062A     		cmp	r2, #6
 5358 014c 09D0     		beq	.L718
 5359 014e 1A68     		ldr	r2, [r3]
 5360 0150 42F00102 		orr	r2, r2, #1
 5361 0154 1A60     		str	r2, [r3]
 5362 0156 0020     		movs	r0, #0
 5363              	.L702:
 5364 0158 10BD     		pop	{r4, pc}
 5365              	.L716:
 5366 015a 0120     		movs	r0, #1
 5367 015c FCE7     		b	.L702
 5368              	.L717:
 5369 015e 0120     		movs	r0, #1
 5370 0160 FAE7     		b	.L702
 5371              	.L718:
 5372 0162 0020     		movs	r0, #0
 5373 0164 F8E7     		b	.L702
 5374              	.L728:
 5375 0166 00BF     		.align	2
 5376              	.L727:
 5377 0168 00000140 		.word	1073807360
 5379              		.section	.text.HAL_TIM_PWM_Stop_IT,"ax",%progbits
 5380              		.align	1
 5381              		.global	HAL_TIM_PWM_Stop_IT
 5382              		.syntax unified
 5383              		.thumb
 5384              		.thumb_func
 5386              	HAL_TIM_PWM_Stop_IT:
 5387              		@ args = 0, pretend = 0, frame = 0
 5388              		@ frame_needed = 0, uses_anonymous_args = 0
ARM GAS  C:\Users\PNGUBO~1\AppData\Local\Temp\ccYA2Pp6.s 			page 92


 5389 0000 38B5     		push	{r3, r4, r5, lr}
 5390 0002 0546     		mov	r5, r0
 5391 0004 0C46     		mov	r4, r1
 5392 0006 0C29     		cmp	r1, #12
 5393 0008 63D8     		bhi	.L743
 5394 000a DFE801F0 		tbb	[pc, r1]
 5395              	.L732:
 5396 000e 07       		.byte	(.L735-.L732)/2
 5397 000f 62       		.byte	(.L743-.L732)/2
 5398 0010 62       		.byte	(.L743-.L732)/2
 5399 0011 62       		.byte	(.L743-.L732)/2
 5400 0012 2E       		.byte	(.L734-.L732)/2
 5401 0013 62       		.byte	(.L743-.L732)/2
 5402 0014 62       		.byte	(.L743-.L732)/2
 5403 0015 62       		.byte	(.L743-.L732)/2
 5404 0016 34       		.byte	(.L733-.L732)/2
 5405 0017 62       		.byte	(.L743-.L732)/2
 5406 0018 62       		.byte	(.L743-.L732)/2
 5407 0019 62       		.byte	(.L743-.L732)/2
 5408 001a 3A       		.byte	(.L731-.L732)/2
 5409 001b 00       		.p2align 1
 5410              	.L735:
 5411 001c 0268     		ldr	r2, [r0]
 5412 001e D368     		ldr	r3, [r2, #12]
 5413 0020 23F00203 		bic	r3, r3, #2
 5414 0024 D360     		str	r3, [r2, #12]
 5415              	.L736:
 5416 0026 0022     		movs	r2, #0
 5417 0028 2146     		mov	r1, r4
 5418 002a 2868     		ldr	r0, [r5]
 5419 002c FFF7FEFF 		bl	TIM_CCxChannelCmd
 5420 0030 2B68     		ldr	r3, [r5]
 5421 0032 294A     		ldr	r2, .L747
 5422 0034 9342     		cmp	r3, r2
 5423 0036 2AD0     		beq	.L737
 5424 0038 02F58062 		add	r2, r2, #1024
 5425 003c 9342     		cmp	r3, r2
 5426 003e 26D0     		beq	.L737
 5427              	.L738:
 5428 0040 2B68     		ldr	r3, [r5]
 5429 0042 196A     		ldr	r1, [r3, #32]
 5430 0044 41F21112 		movw	r2, #4369
 5431 0048 1142     		tst	r1, r2
 5432 004a 08D1     		bne	.L739
 5433 004c 196A     		ldr	r1, [r3, #32]
 5434 004e 40F24442 		movw	r2, #1092
 5435 0052 1142     		tst	r1, r2
 5436 0054 03D1     		bne	.L739
 5437 0056 1A68     		ldr	r2, [r3]
 5438 0058 22F00102 		bic	r2, r2, #1
 5439 005c 1A60     		str	r2, [r3]
 5440              	.L739:
 5441 005e 2CBB     		cbnz	r4, .L740
 5442 0060 0123     		movs	r3, #1
 5443 0062 85F83E30 		strb	r3, [r5, #62]
 5444 0066 0020     		movs	r0, #0
 5445 0068 34E0     		b	.L730
ARM GAS  C:\Users\PNGUBO~1\AppData\Local\Temp\ccYA2Pp6.s 			page 93


 5446              	.L734:
 5447 006a 0268     		ldr	r2, [r0]
 5448 006c D368     		ldr	r3, [r2, #12]
 5449 006e 23F00403 		bic	r3, r3, #4
 5450 0072 D360     		str	r3, [r2, #12]
 5451 0074 D7E7     		b	.L736
 5452              	.L733:
 5453 0076 0268     		ldr	r2, [r0]
 5454 0078 D368     		ldr	r3, [r2, #12]
 5455 007a 23F00803 		bic	r3, r3, #8
 5456 007e D360     		str	r3, [r2, #12]
 5457 0080 D1E7     		b	.L736
 5458              	.L731:
 5459 0082 0268     		ldr	r2, [r0]
 5460 0084 D368     		ldr	r3, [r2, #12]
 5461 0086 23F01003 		bic	r3, r3, #16
 5462 008a D360     		str	r3, [r2, #12]
 5463 008c CBE7     		b	.L736
 5464              	.L737:
 5465 008e 196A     		ldr	r1, [r3, #32]
 5466 0090 41F21112 		movw	r2, #4369
 5467 0094 1142     		tst	r1, r2
 5468 0096 D3D1     		bne	.L738
 5469 0098 196A     		ldr	r1, [r3, #32]
 5470 009a 40F24442 		movw	r2, #1092
 5471 009e 1142     		tst	r1, r2
 5472 00a0 CED1     		bne	.L738
 5473 00a2 5A6C     		ldr	r2, [r3, #68]
 5474 00a4 22F40042 		bic	r2, r2, #32768
 5475 00a8 5A64     		str	r2, [r3, #68]
 5476 00aa C9E7     		b	.L738
 5477              	.L740:
 5478 00ac 042C     		cmp	r4, #4
 5479 00ae 06D0     		beq	.L745
 5480 00b0 082C     		cmp	r4, #8
 5481 00b2 09D0     		beq	.L746
 5482 00b4 0123     		movs	r3, #1
 5483 00b6 85F84130 		strb	r3, [r5, #65]
 5484 00ba 0020     		movs	r0, #0
 5485 00bc 0AE0     		b	.L730
 5486              	.L745:
 5487 00be 0123     		movs	r3, #1
 5488 00c0 85F83F30 		strb	r3, [r5, #63]
 5489 00c4 0020     		movs	r0, #0
 5490 00c6 05E0     		b	.L730
 5491              	.L746:
 5492 00c8 0123     		movs	r3, #1
 5493 00ca 85F84030 		strb	r3, [r5, #64]
 5494 00ce 0020     		movs	r0, #0
 5495 00d0 00E0     		b	.L730
 5496              	.L743:
 5497 00d2 0120     		movs	r0, #1
 5498              	.L730:
 5499 00d4 38BD     		pop	{r3, r4, r5, pc}
 5500              	.L748:
 5501 00d6 00BF     		.align	2
 5502              	.L747:
ARM GAS  C:\Users\PNGUBO~1\AppData\Local\Temp\ccYA2Pp6.s 			page 94


 5503 00d8 00000140 		.word	1073807360
 5505              		.section	.text.HAL_TIM_PWM_Start_DMA,"ax",%progbits
 5506              		.align	1
 5507              		.global	HAL_TIM_PWM_Start_DMA
 5508              		.syntax unified
 5509              		.thumb
 5510              		.thumb_func
 5512              	HAL_TIM_PWM_Start_DMA:
 5513              		@ args = 0, pretend = 0, frame = 0
 5514              		@ frame_needed = 0, uses_anonymous_args = 0
 5515 0000 70B5     		push	{r4, r5, r6, lr}
 5516 0002 0446     		mov	r4, r0
 5517 0004 1646     		mov	r6, r2
 5518 0006 0D46     		mov	r5, r1
 5519 0008 0029     		cmp	r1, #0
 5520 000a 75D1     		bne	.L750
 5521 000c 90F83E00 		ldrb	r0, [r0, #62]	@ zero_extendqisi2
 5522 0010 0228     		cmp	r0, #2
 5523 0012 14BF     		ite	ne
 5524 0014 0020     		movne	r0, #0
 5525 0016 0120     		moveq	r0, #1
 5526              	.L751:
 5527 0018 0028     		cmp	r0, #0
 5528 001a 40F01A81 		bne	.L772
 5529 001e 002D     		cmp	r5, #0
 5530 0020 40F08380 		bne	.L755
 5531 0024 94F83E20 		ldrb	r2, [r4, #62]	@ zero_extendqisi2
 5532 0028 012A     		cmp	r2, #1
 5533 002a 14BF     		ite	ne
 5534 002c 0022     		movne	r2, #0
 5535 002e 0122     		moveq	r2, #1
 5536              	.L756:
 5537 0030 002A     		cmp	r2, #0
 5538 0032 00F01081 		beq	.L773
 5539 0036 002E     		cmp	r6, #0
 5540 0038 00F00F81 		beq	.L774
 5541 003c 002B     		cmp	r3, #0
 5542 003e 00F00E81 		beq	.L775
 5543 0042 002D     		cmp	r5, #0
 5544 0044 40F08A80 		bne	.L759
 5545 0048 0222     		movs	r2, #2
 5546 004a 84F83E20 		strb	r2, [r4, #62]
 5547              	.L760:
 5548 004e 626A     		ldr	r2, [r4, #36]
 5549 0050 8A49     		ldr	r1, .L792
 5550 0052 D163     		str	r1, [r2, #60]
 5551 0054 626A     		ldr	r2, [r4, #36]
 5552 0056 8A49     		ldr	r1, .L792+4
 5553 0058 1164     		str	r1, [r2, #64]
 5554 005a 626A     		ldr	r2, [r4, #36]
 5555 005c 8949     		ldr	r1, .L792+8
 5556 005e D164     		str	r1, [r2, #76]
 5557 0060 2268     		ldr	r2, [r4]
 5558 0062 3432     		adds	r2, r2, #52
 5559 0064 3146     		mov	r1, r6
 5560 0066 606A     		ldr	r0, [r4, #36]
 5561 0068 FFF7FEFF 		bl	HAL_DMA_Start_IT
ARM GAS  C:\Users\PNGUBO~1\AppData\Local\Temp\ccYA2Pp6.s 			page 95


 5562 006c 0028     		cmp	r0, #0
 5563 006e 40F0FA80 		bne	.L777
 5564 0072 2268     		ldr	r2, [r4]
 5565 0074 D368     		ldr	r3, [r2, #12]
 5566 0076 43F40073 		orr	r3, r3, #512
 5567 007a D360     		str	r3, [r2, #12]
 5568              	.L767:
 5569 007c 0122     		movs	r2, #1
 5570 007e 2946     		mov	r1, r5
 5571 0080 2068     		ldr	r0, [r4]
 5572 0082 FFF7FEFF 		bl	TIM_CCxChannelCmd
 5573 0086 2368     		ldr	r3, [r4]
 5574 0088 7F4A     		ldr	r2, .L792+12
 5575 008a 9342     		cmp	r3, r2
 5576 008c 03D0     		beq	.L768
 5577 008e 02F58062 		add	r2, r2, #1024
 5578 0092 9342     		cmp	r3, r2
 5579 0094 03D1     		bne	.L769
 5580              	.L768:
 5581 0096 5A6C     		ldr	r2, [r3, #68]
 5582 0098 42F40042 		orr	r2, r2, #32768
 5583 009c 5A64     		str	r2, [r3, #68]
 5584              	.L769:
 5585 009e 2368     		ldr	r3, [r4]
 5586 00a0 794A     		ldr	r2, .L792+12
 5587 00a2 9342     		cmp	r3, r2
 5588 00a4 00F0CA80 		beq	.L770
 5589 00a8 B3F1804F 		cmp	r3, #1073741824
 5590 00ac 00F0C680 		beq	.L770
 5591 00b0 A2F57C42 		sub	r2, r2, #64512
 5592 00b4 9342     		cmp	r3, r2
 5593 00b6 00F0C180 		beq	.L770
 5594 00ba 02F58062 		add	r2, r2, #1024
 5595 00be 9342     		cmp	r3, r2
 5596 00c0 00F0BC80 		beq	.L770
 5597 00c4 02F58062 		add	r2, r2, #1024
 5598 00c8 9342     		cmp	r3, r2
 5599 00ca 00F0B780 		beq	.L770
 5600 00ce 02F57842 		add	r2, r2, #63488
 5601 00d2 9342     		cmp	r3, r2
 5602 00d4 00F0B280 		beq	.L770
 5603 00d8 02F57052 		add	r2, r2, #15360
 5604 00dc 9342     		cmp	r3, r2
 5605 00de 00F0AD80 		beq	.L770
 5606 00e2 A2F59432 		sub	r2, r2, #75776
 5607 00e6 9342     		cmp	r3, r2
 5608 00e8 00F0A880 		beq	.L770
 5609 00ec 1A68     		ldr	r2, [r3]
 5610 00ee 42F00102 		orr	r2, r2, #1
 5611 00f2 1A60     		str	r2, [r3]
 5612 00f4 0020     		movs	r0, #0
 5613 00f6 AFE0     		b	.L754
 5614              	.L750:
 5615 00f8 0429     		cmp	r1, #4
 5616 00fa 08D0     		beq	.L786
 5617 00fc 0829     		cmp	r1, #8
 5618 00fe 0DD0     		beq	.L787
ARM GAS  C:\Users\PNGUBO~1\AppData\Local\Temp\ccYA2Pp6.s 			page 96


 5619 0100 90F84100 		ldrb	r0, [r0, #65]	@ zero_extendqisi2
 5620 0104 0228     		cmp	r0, #2
 5621 0106 14BF     		ite	ne
 5622 0108 0020     		movne	r0, #0
 5623 010a 0120     		moveq	r0, #1
 5624 010c 84E7     		b	.L751
 5625              	.L786:
 5626 010e 90F83F00 		ldrb	r0, [r0, #63]	@ zero_extendqisi2
 5627 0112 0228     		cmp	r0, #2
 5628 0114 14BF     		ite	ne
 5629 0116 0020     		movne	r0, #0
 5630 0118 0120     		moveq	r0, #1
 5631 011a 7DE7     		b	.L751
 5632              	.L787:
 5633 011c 90F84000 		ldrb	r0, [r0, #64]	@ zero_extendqisi2
 5634 0120 0228     		cmp	r0, #2
 5635 0122 14BF     		ite	ne
 5636 0124 0020     		movne	r0, #0
 5637 0126 0120     		moveq	r0, #1
 5638 0128 76E7     		b	.L751
 5639              	.L755:
 5640 012a 042D     		cmp	r5, #4
 5641 012c 08D0     		beq	.L788
 5642 012e 082D     		cmp	r5, #8
 5643 0130 0DD0     		beq	.L789
 5644 0132 94F84120 		ldrb	r2, [r4, #65]	@ zero_extendqisi2
 5645 0136 012A     		cmp	r2, #1
 5646 0138 14BF     		ite	ne
 5647 013a 0022     		movne	r2, #0
 5648 013c 0122     		moveq	r2, #1
 5649 013e 77E7     		b	.L756
 5650              	.L788:
 5651 0140 94F83F20 		ldrb	r2, [r4, #63]	@ zero_extendqisi2
 5652 0144 012A     		cmp	r2, #1
 5653 0146 14BF     		ite	ne
 5654 0148 0022     		movne	r2, #0
 5655 014a 0122     		moveq	r2, #1
 5656 014c 70E7     		b	.L756
 5657              	.L789:
 5658 014e 94F84020 		ldrb	r2, [r4, #64]	@ zero_extendqisi2
 5659 0152 012A     		cmp	r2, #1
 5660 0154 14BF     		ite	ne
 5661 0156 0022     		movne	r2, #0
 5662 0158 0122     		moveq	r2, #1
 5663 015a 69E7     		b	.L756
 5664              	.L759:
 5665 015c 042D     		cmp	r5, #4
 5666 015e 23D0     		beq	.L790
 5667 0160 082D     		cmp	r5, #8
 5668 0162 3BD0     		beq	.L791
 5669 0164 0222     		movs	r2, #2
 5670 0166 84F84120 		strb	r2, [r4, #65]
 5671 016a 0C2D     		cmp	r5, #12
 5672 016c 79D8     		bhi	.L776
 5673 016e 01A2     		adr	r2, .L766
 5674 0170 52F825F0 		ldr	pc, [r2, r5, lsl #2]
 5675              		.p2align 2
ARM GAS  C:\Users\PNGUBO~1\AppData\Local\Temp\ccYA2Pp6.s 			page 97


 5676              	.L766:
 5677 0174 4F000000 		.word	.L760+1
 5678 0178 63020000 		.word	.L776+1
 5679 017c 63020000 		.word	.L776+1
 5680 0180 63020000 		.word	.L776+1
 5681 0184 AF010000 		.word	.L762+1
 5682 0188 63020000 		.word	.L776+1
 5683 018c 63020000 		.word	.L776+1
 5684 0190 63020000 		.word	.L776+1
 5685 0194 E3010000 		.word	.L764+1
 5686 0198 63020000 		.word	.L776+1
 5687 019c 63020000 		.word	.L776+1
 5688 01a0 63020000 		.word	.L776+1
 5689 01a4 11020000 		.word	.L765+1
 5690              		.p2align 1
 5691              	.L790:
 5692 01a8 0222     		movs	r2, #2
 5693 01aa 84F83F20 		strb	r2, [r4, #63]
 5694              	.L762:
 5695 01ae A26A     		ldr	r2, [r4, #40]
 5696 01b0 3249     		ldr	r1, .L792
 5697 01b2 D163     		str	r1, [r2, #60]
 5698 01b4 A26A     		ldr	r2, [r4, #40]
 5699 01b6 3249     		ldr	r1, .L792+4
 5700 01b8 1164     		str	r1, [r2, #64]
 5701 01ba A26A     		ldr	r2, [r4, #40]
 5702 01bc 3149     		ldr	r1, .L792+8
 5703 01be D164     		str	r1, [r2, #76]
 5704 01c0 2268     		ldr	r2, [r4]
 5705 01c2 3832     		adds	r2, r2, #56
 5706 01c4 3146     		mov	r1, r6
 5707 01c6 A06A     		ldr	r0, [r4, #40]
 5708 01c8 FFF7FEFF 		bl	HAL_DMA_Start_IT
 5709 01cc 0028     		cmp	r0, #0
 5710 01ce 4CD1     		bne	.L778
 5711 01d0 2268     		ldr	r2, [r4]
 5712 01d2 D368     		ldr	r3, [r2, #12]
 5713 01d4 43F48063 		orr	r3, r3, #1024
 5714 01d8 D360     		str	r3, [r2, #12]
 5715 01da 4FE7     		b	.L767
 5716              	.L791:
 5717 01dc 0222     		movs	r2, #2
 5718 01de 84F84020 		strb	r2, [r4, #64]
 5719              	.L764:
 5720 01e2 E26A     		ldr	r2, [r4, #44]
 5721 01e4 2549     		ldr	r1, .L792
 5722 01e6 D163     		str	r1, [r2, #60]
 5723 01e8 E26A     		ldr	r2, [r4, #44]
 5724 01ea 2549     		ldr	r1, .L792+4
 5725 01ec 1164     		str	r1, [r2, #64]
 5726 01ee E26A     		ldr	r2, [r4, #44]
 5727 01f0 2449     		ldr	r1, .L792+8
 5728 01f2 D164     		str	r1, [r2, #76]
 5729 01f4 2268     		ldr	r2, [r4]
 5730 01f6 3C32     		adds	r2, r2, #60
 5731 01f8 3146     		mov	r1, r6
 5732 01fa E06A     		ldr	r0, [r4, #44]
ARM GAS  C:\Users\PNGUBO~1\AppData\Local\Temp\ccYA2Pp6.s 			page 98


 5733 01fc FFF7FEFF 		bl	HAL_DMA_Start_IT
 5734 0200 0028     		cmp	r0, #0
 5735 0202 34D1     		bne	.L779
 5736 0204 2268     		ldr	r2, [r4]
 5737 0206 D368     		ldr	r3, [r2, #12]
 5738 0208 43F40063 		orr	r3, r3, #2048
 5739 020c D360     		str	r3, [r2, #12]
 5740 020e 35E7     		b	.L767
 5741              	.L765:
 5742 0210 226B     		ldr	r2, [r4, #48]
 5743 0212 1A49     		ldr	r1, .L792
 5744 0214 D163     		str	r1, [r2, #60]
 5745 0216 226B     		ldr	r2, [r4, #48]
 5746 0218 1949     		ldr	r1, .L792+4
 5747 021a 1164     		str	r1, [r2, #64]
 5748 021c 226B     		ldr	r2, [r4, #48]
 5749 021e 1949     		ldr	r1, .L792+8
 5750 0220 D164     		str	r1, [r2, #76]
 5751 0222 2268     		ldr	r2, [r4]
 5752 0224 4032     		adds	r2, r2, #64
 5753 0226 3146     		mov	r1, r6
 5754 0228 206B     		ldr	r0, [r4, #48]
 5755 022a FFF7FEFF 		bl	HAL_DMA_Start_IT
 5756 022e 00BB     		cbnz	r0, .L780
 5757 0230 2268     		ldr	r2, [r4]
 5758 0232 D368     		ldr	r3, [r2, #12]
 5759 0234 43F48053 		orr	r3, r3, #4096
 5760 0238 D360     		str	r3, [r2, #12]
 5761 023a 1FE7     		b	.L767
 5762              	.L770:
 5763 023c 9A68     		ldr	r2, [r3, #8]
 5764 023e 02F00702 		and	r2, r2, #7
 5765 0242 062A     		cmp	r2, #6
 5766 0244 17D0     		beq	.L781
 5767 0246 1A68     		ldr	r2, [r3]
 5768 0248 42F00102 		orr	r2, r2, #1
 5769 024c 1A60     		str	r2, [r3]
 5770 024e 0020     		movs	r0, #0
 5771 0250 02E0     		b	.L754
 5772              	.L772:
 5773 0252 0220     		movs	r0, #2
 5774 0254 00E0     		b	.L754
 5775              	.L773:
 5776 0256 0120     		movs	r0, #1
 5777              	.L754:
 5778 0258 70BD     		pop	{r4, r5, r6, pc}
 5779              	.L774:
 5780 025a 0120     		movs	r0, #1
 5781 025c FCE7     		b	.L754
 5782              	.L775:
 5783 025e 0120     		movs	r0, #1
 5784 0260 FAE7     		b	.L754
 5785              	.L776:
 5786 0262 0120     		movs	r0, #1
 5787 0264 F8E7     		b	.L754
 5788              	.L777:
 5789 0266 0120     		movs	r0, #1
ARM GAS  C:\Users\PNGUBO~1\AppData\Local\Temp\ccYA2Pp6.s 			page 99


 5790 0268 F6E7     		b	.L754
 5791              	.L778:
 5792 026a 0120     		movs	r0, #1
 5793 026c F4E7     		b	.L754
 5794              	.L779:
 5795 026e 0120     		movs	r0, #1
 5796 0270 F2E7     		b	.L754
 5797              	.L780:
 5798 0272 0120     		movs	r0, #1
 5799 0274 F0E7     		b	.L754
 5800              	.L781:
 5801 0276 0020     		movs	r0, #0
 5802 0278 EEE7     		b	.L754
 5803              	.L793:
 5804 027a 00BF     		.align	2
 5805              	.L792:
 5806 027c 00000000 		.word	TIM_DMADelayPulseCplt
 5807 0280 00000000 		.word	TIM_DMADelayPulseHalfCplt
 5808 0284 00000000 		.word	TIM_DMAError
 5809 0288 00000140 		.word	1073807360
 5811              		.section	.text.HAL_TIM_PWM_Stop_DMA,"ax",%progbits
 5812              		.align	1
 5813              		.global	HAL_TIM_PWM_Stop_DMA
 5814              		.syntax unified
 5815              		.thumb
 5816              		.thumb_func
 5818              	HAL_TIM_PWM_Stop_DMA:
 5819              		@ args = 0, pretend = 0, frame = 0
 5820              		@ frame_needed = 0, uses_anonymous_args = 0
 5821 0000 38B5     		push	{r3, r4, r5, lr}
 5822 0002 0546     		mov	r5, r0
 5823 0004 0C46     		mov	r4, r1
 5824 0006 0C29     		cmp	r1, #12
 5825 0008 70D8     		bhi	.L808
 5826 000a DFE801F0 		tbb	[pc, r1]
 5827              	.L797:
 5828 000e 07       		.byte	(.L800-.L797)/2
 5829 000f 6F       		.byte	(.L808-.L797)/2
 5830 0010 6F       		.byte	(.L808-.L797)/2
 5831 0011 6F       		.byte	(.L808-.L797)/2
 5832 0012 32       		.byte	(.L799-.L797)/2
 5833 0013 6F       		.byte	(.L808-.L797)/2
 5834 0014 6F       		.byte	(.L808-.L797)/2
 5835 0015 6F       		.byte	(.L808-.L797)/2
 5836 0016 3B       		.byte	(.L798-.L797)/2
 5837 0017 6F       		.byte	(.L808-.L797)/2
 5838 0018 6F       		.byte	(.L808-.L797)/2
 5839 0019 6F       		.byte	(.L808-.L797)/2
 5840 001a 44       		.byte	(.L796-.L797)/2
 5841 001b 00       		.p2align 1
 5842              	.L800:
 5843 001c 0268     		ldr	r2, [r0]
 5844 001e D368     		ldr	r3, [r2, #12]
 5845 0020 23F40073 		bic	r3, r3, #512
 5846 0024 D360     		str	r3, [r2, #12]
 5847 0026 406A     		ldr	r0, [r0, #36]
 5848 0028 FFF7FEFF 		bl	HAL_DMA_Abort_IT
ARM GAS  C:\Users\PNGUBO~1\AppData\Local\Temp\ccYA2Pp6.s 			page 100


 5849              	.L801:
 5850 002c 0022     		movs	r2, #0
 5851 002e 2146     		mov	r1, r4
 5852 0030 2868     		ldr	r0, [r5]
 5853 0032 FFF7FEFF 		bl	TIM_CCxChannelCmd
 5854 0036 2B68     		ldr	r3, [r5]
 5855 0038 2D4A     		ldr	r2, .L812
 5856 003a 9342     		cmp	r3, r2
 5857 003c 34D0     		beq	.L802
 5858 003e 02F58062 		add	r2, r2, #1024
 5859 0042 9342     		cmp	r3, r2
 5860 0044 30D0     		beq	.L802
 5861              	.L803:
 5862 0046 2B68     		ldr	r3, [r5]
 5863 0048 196A     		ldr	r1, [r3, #32]
 5864 004a 41F21112 		movw	r2, #4369
 5865 004e 1142     		tst	r1, r2
 5866 0050 08D1     		bne	.L804
 5867 0052 196A     		ldr	r1, [r3, #32]
 5868 0054 40F24442 		movw	r2, #1092
 5869 0058 1142     		tst	r1, r2
 5870 005a 03D1     		bne	.L804
 5871 005c 1A68     		ldr	r2, [r3]
 5872 005e 22F00102 		bic	r2, r2, #1
 5873 0062 1A60     		str	r2, [r3]
 5874              	.L804:
 5875 0064 002C     		cmp	r4, #0
 5876 0066 2ED1     		bne	.L805
 5877 0068 0123     		movs	r3, #1
 5878 006a 85F83E30 		strb	r3, [r5, #62]
 5879 006e 0020     		movs	r0, #0
 5880 0070 3DE0     		b	.L795
 5881              	.L799:
 5882 0072 0268     		ldr	r2, [r0]
 5883 0074 D368     		ldr	r3, [r2, #12]
 5884 0076 23F48063 		bic	r3, r3, #1024
 5885 007a D360     		str	r3, [r2, #12]
 5886 007c 806A     		ldr	r0, [r0, #40]
 5887 007e FFF7FEFF 		bl	HAL_DMA_Abort_IT
 5888 0082 D3E7     		b	.L801
 5889              	.L798:
 5890 0084 0268     		ldr	r2, [r0]
 5891 0086 D368     		ldr	r3, [r2, #12]
 5892 0088 23F40063 		bic	r3, r3, #2048
 5893 008c D360     		str	r3, [r2, #12]
 5894 008e C06A     		ldr	r0, [r0, #44]
 5895 0090 FFF7FEFF 		bl	HAL_DMA_Abort_IT
 5896 0094 CAE7     		b	.L801
 5897              	.L796:
 5898 0096 0268     		ldr	r2, [r0]
 5899 0098 D368     		ldr	r3, [r2, #12]
 5900 009a 23F48053 		bic	r3, r3, #4096
 5901 009e D360     		str	r3, [r2, #12]
 5902 00a0 006B     		ldr	r0, [r0, #48]
 5903 00a2 FFF7FEFF 		bl	HAL_DMA_Abort_IT
 5904 00a6 C1E7     		b	.L801
 5905              	.L802:
ARM GAS  C:\Users\PNGUBO~1\AppData\Local\Temp\ccYA2Pp6.s 			page 101


 5906 00a8 196A     		ldr	r1, [r3, #32]
 5907 00aa 41F21112 		movw	r2, #4369
 5908 00ae 1142     		tst	r1, r2
 5909 00b0 C9D1     		bne	.L803
 5910 00b2 196A     		ldr	r1, [r3, #32]
 5911 00b4 40F24442 		movw	r2, #1092
 5912 00b8 1142     		tst	r1, r2
 5913 00ba C4D1     		bne	.L803
 5914 00bc 5A6C     		ldr	r2, [r3, #68]
 5915 00be 22F40042 		bic	r2, r2, #32768
 5916 00c2 5A64     		str	r2, [r3, #68]
 5917 00c4 BFE7     		b	.L803
 5918              	.L805:
 5919 00c6 042C     		cmp	r4, #4
 5920 00c8 06D0     		beq	.L810
 5921 00ca 082C     		cmp	r4, #8
 5922 00cc 09D0     		beq	.L811
 5923 00ce 0123     		movs	r3, #1
 5924 00d0 85F84130 		strb	r3, [r5, #65]
 5925 00d4 0020     		movs	r0, #0
 5926 00d6 0AE0     		b	.L795
 5927              	.L810:
 5928 00d8 0123     		movs	r3, #1
 5929 00da 85F83F30 		strb	r3, [r5, #63]
 5930 00de 0020     		movs	r0, #0
 5931 00e0 05E0     		b	.L795
 5932              	.L811:
 5933 00e2 0123     		movs	r3, #1
 5934 00e4 85F84030 		strb	r3, [r5, #64]
 5935 00e8 0020     		movs	r0, #0
 5936 00ea 00E0     		b	.L795
 5937              	.L808:
 5938 00ec 0120     		movs	r0, #1
 5939              	.L795:
 5940 00ee 38BD     		pop	{r3, r4, r5, pc}
 5941              	.L813:
 5942              		.align	2
 5943              	.L812:
 5944 00f0 00000140 		.word	1073807360
 5946              		.section	.text.HAL_TIM_IC_Start,"ax",%progbits
 5947              		.align	1
 5948              		.global	HAL_TIM_IC_Start
 5949              		.syntax unified
 5950              		.thumb
 5951              		.thumb_func
 5953              	HAL_TIM_IC_Start:
 5954              		@ args = 0, pretend = 0, frame = 0
 5955              		@ frame_needed = 0, uses_anonymous_args = 0
 5956 0000 10B5     		push	{r4, lr}
 5957 0002 0446     		mov	r4, r0
 5958 0004 0B46     		mov	r3, r1
 5959 0006 0029     		cmp	r1, #0
 5960 0008 3AD1     		bne	.L815
 5961 000a 90F83E00 		ldrb	r0, [r0, #62]	@ zero_extendqisi2
 5962 000e C0B2     		uxtb	r0, r0
 5963 0010 94F84220 		ldrb	r2, [r4, #66]	@ zero_extendqisi2
 5964 0014 D2B2     		uxtb	r2, r2
ARM GAS  C:\Users\PNGUBO~1\AppData\Local\Temp\ccYA2Pp6.s 			page 102


 5965              	.L816:
 5966 0016 0128     		cmp	r0, #1
 5967 0018 7BD1     		bne	.L832
 5968 001a 012A     		cmp	r2, #1
 5969 001c 7AD1     		bne	.L822
 5970 001e 002B     		cmp	r3, #0
 5971 0020 4DD1     		bne	.L823
 5972 0022 0222     		movs	r2, #2
 5973 0024 84F83E20 		strb	r2, [r4, #62]
 5974 0028 84F84220 		strb	r2, [r4, #66]
 5975              	.L824:
 5976 002c 0122     		movs	r2, #1
 5977 002e 1946     		mov	r1, r3
 5978 0030 2068     		ldr	r0, [r4]
 5979 0032 FFF7FEFF 		bl	TIM_CCxChannelCmd
 5980 0036 2368     		ldr	r3, [r4]
 5981 0038 384A     		ldr	r2, .L843
 5982 003a 9342     		cmp	r3, r2
 5983 003c 5ED0     		beq	.L830
 5984 003e B3F1804F 		cmp	r3, #1073741824
 5985 0042 5BD0     		beq	.L830
 5986 0044 A2F57C42 		sub	r2, r2, #64512
 5987 0048 9342     		cmp	r3, r2
 5988 004a 57D0     		beq	.L830
 5989 004c 02F58062 		add	r2, r2, #1024
 5990 0050 9342     		cmp	r3, r2
 5991 0052 53D0     		beq	.L830
 5992 0054 02F58062 		add	r2, r2, #1024
 5993 0058 9342     		cmp	r3, r2
 5994 005a 4FD0     		beq	.L830
 5995 005c 02F57842 		add	r2, r2, #63488
 5996 0060 9342     		cmp	r3, r2
 5997 0062 4BD0     		beq	.L830
 5998 0064 02F57052 		add	r2, r2, #15360
 5999 0068 9342     		cmp	r3, r2
 6000 006a 47D0     		beq	.L830
 6001 006c A2F59432 		sub	r2, r2, #75776
 6002 0070 9342     		cmp	r3, r2
 6003 0072 43D0     		beq	.L830
 6004 0074 1A68     		ldr	r2, [r3]
 6005 0076 42F00102 		orr	r2, r2, #1
 6006 007a 1A60     		str	r2, [r3]
 6007 007c 0020     		movs	r0, #0
 6008 007e 49E0     		b	.L822
 6009              	.L815:
 6010 0080 0429     		cmp	r1, #4
 6011 0082 0CD0     		beq	.L835
 6012 0084 0829     		cmp	r1, #8
 6013 0086 0ED0     		beq	.L836
 6014 0088 90F84100 		ldrb	r0, [r0, #65]	@ zero_extendqisi2
 6015 008c C0B2     		uxtb	r0, r0
 6016              	.L818:
 6017 008e 042B     		cmp	r3, #4
 6018 0090 0DD0     		beq	.L837
 6019 0092 082B     		cmp	r3, #8
 6020 0094 0FD0     		beq	.L838
 6021 0096 94F84520 		ldrb	r2, [r4, #69]	@ zero_extendqisi2
ARM GAS  C:\Users\PNGUBO~1\AppData\Local\Temp\ccYA2Pp6.s 			page 103


 6022 009a D2B2     		uxtb	r2, r2
 6023 009c BBE7     		b	.L816
 6024              	.L835:
 6025 009e 90F83F00 		ldrb	r0, [r0, #63]	@ zero_extendqisi2
 6026 00a2 C0B2     		uxtb	r0, r0
 6027 00a4 F3E7     		b	.L818
 6028              	.L836:
 6029 00a6 90F84000 		ldrb	r0, [r0, #64]	@ zero_extendqisi2
 6030 00aa C0B2     		uxtb	r0, r0
 6031 00ac EFE7     		b	.L818
 6032              	.L837:
 6033 00ae 94F84320 		ldrb	r2, [r4, #67]	@ zero_extendqisi2
 6034 00b2 D2B2     		uxtb	r2, r2
 6035 00b4 AFE7     		b	.L816
 6036              	.L838:
 6037 00b6 94F84420 		ldrb	r2, [r4, #68]	@ zero_extendqisi2
 6038 00ba D2B2     		uxtb	r2, r2
 6039 00bc ABE7     		b	.L816
 6040              	.L823:
 6041 00be 042B     		cmp	r3, #4
 6042 00c0 0CD0     		beq	.L839
 6043 00c2 082B     		cmp	r3, #8
 6044 00c4 0ED0     		beq	.L840
 6045 00c6 0222     		movs	r2, #2
 6046 00c8 84F84120 		strb	r2, [r4, #65]
 6047              	.L826:
 6048 00cc 042B     		cmp	r3, #4
 6049 00ce 0DD0     		beq	.L841
 6050 00d0 082B     		cmp	r3, #8
 6051 00d2 0FD0     		beq	.L842
 6052 00d4 0222     		movs	r2, #2
 6053 00d6 84F84520 		strb	r2, [r4, #69]
 6054 00da A7E7     		b	.L824
 6055              	.L839:
 6056 00dc 0222     		movs	r2, #2
 6057 00de 84F83F20 		strb	r2, [r4, #63]
 6058 00e2 F3E7     		b	.L826
 6059              	.L840:
 6060 00e4 0222     		movs	r2, #2
 6061 00e6 84F84020 		strb	r2, [r4, #64]
 6062 00ea EFE7     		b	.L826
 6063              	.L841:
 6064 00ec 0222     		movs	r2, #2
 6065 00ee 84F84320 		strb	r2, [r4, #67]
 6066 00f2 9BE7     		b	.L824
 6067              	.L842:
 6068 00f4 0222     		movs	r2, #2
 6069 00f6 84F84420 		strb	r2, [r4, #68]
 6070 00fa 97E7     		b	.L824
 6071              	.L830:
 6072 00fc 9A68     		ldr	r2, [r3, #8]
 6073 00fe 02F00702 		and	r2, r2, #7
 6074 0102 062A     		cmp	r2, #6
 6075 0104 07D0     		beq	.L833
 6076 0106 1A68     		ldr	r2, [r3]
 6077 0108 42F00102 		orr	r2, r2, #1
 6078 010c 1A60     		str	r2, [r3]
ARM GAS  C:\Users\PNGUBO~1\AppData\Local\Temp\ccYA2Pp6.s 			page 104


 6079 010e 0020     		movs	r0, #0
 6080 0110 00E0     		b	.L822
 6081              	.L832:
 6082 0112 0120     		movs	r0, #1
 6083              	.L822:
 6084 0114 10BD     		pop	{r4, pc}
 6085              	.L833:
 6086 0116 0020     		movs	r0, #0
 6087 0118 FCE7     		b	.L822
 6088              	.L844:
 6089 011a 00BF     		.align	2
 6090              	.L843:
 6091 011c 00000140 		.word	1073807360
 6093              		.section	.text.HAL_TIM_IC_Stop,"ax",%progbits
 6094              		.align	1
 6095              		.global	HAL_TIM_IC_Stop
 6096              		.syntax unified
 6097              		.thumb
 6098              		.thumb_func
 6100              	HAL_TIM_IC_Stop:
 6101              		@ args = 0, pretend = 0, frame = 0
 6102              		@ frame_needed = 0, uses_anonymous_args = 0
 6103 0000 38B5     		push	{r3, r4, r5, lr}
 6104 0002 0446     		mov	r4, r0
 6105 0004 0D46     		mov	r5, r1
 6106 0006 0022     		movs	r2, #0
 6107 0008 0068     		ldr	r0, [r0]
 6108 000a FFF7FEFF 		bl	TIM_CCxChannelCmd
 6109 000e 2368     		ldr	r3, [r4]
 6110 0010 196A     		ldr	r1, [r3, #32]
 6111 0012 41F21112 		movw	r2, #4369
 6112 0016 1142     		tst	r1, r2
 6113 0018 08D1     		bne	.L846
 6114 001a 196A     		ldr	r1, [r3, #32]
 6115 001c 40F24442 		movw	r2, #1092
 6116 0020 1142     		tst	r1, r2
 6117 0022 03D1     		bne	.L846
 6118 0024 1A68     		ldr	r2, [r3]
 6119 0026 22F00102 		bic	r2, r2, #1
 6120 002a 1A60     		str	r2, [r3]
 6121              	.L846:
 6122 002c 35B9     		cbnz	r5, .L847
 6123 002e 0123     		movs	r3, #1
 6124 0030 84F83E30 		strb	r3, [r4, #62]
 6125 0034 84F84230 		strb	r3, [r4, #66]
 6126              	.L848:
 6127 0038 0020     		movs	r0, #0
 6128 003a 38BD     		pop	{r3, r4, r5, pc}
 6129              	.L847:
 6130 003c 042D     		cmp	r5, #4
 6131 003e 0CD0     		beq	.L855
 6132 0040 082D     		cmp	r5, #8
 6133 0042 0ED0     		beq	.L856
 6134 0044 0123     		movs	r3, #1
 6135 0046 84F84130 		strb	r3, [r4, #65]
 6136              	.L850:
 6137 004a 042D     		cmp	r5, #4
ARM GAS  C:\Users\PNGUBO~1\AppData\Local\Temp\ccYA2Pp6.s 			page 105


 6138 004c 0DD0     		beq	.L857
 6139 004e 082D     		cmp	r5, #8
 6140 0050 0FD0     		beq	.L858
 6141 0052 0123     		movs	r3, #1
 6142 0054 84F84530 		strb	r3, [r4, #69]
 6143 0058 EEE7     		b	.L848
 6144              	.L855:
 6145 005a 0123     		movs	r3, #1
 6146 005c 84F83F30 		strb	r3, [r4, #63]
 6147 0060 F3E7     		b	.L850
 6148              	.L856:
 6149 0062 0123     		movs	r3, #1
 6150 0064 84F84030 		strb	r3, [r4, #64]
 6151 0068 EFE7     		b	.L850
 6152              	.L857:
 6153 006a 0123     		movs	r3, #1
 6154 006c 84F84330 		strb	r3, [r4, #67]
 6155 0070 E2E7     		b	.L848
 6156              	.L858:
 6157 0072 0123     		movs	r3, #1
 6158 0074 84F84430 		strb	r3, [r4, #68]
 6159 0078 DEE7     		b	.L848
 6161              		.section	.text.HAL_TIM_IC_Start_IT,"ax",%progbits
 6162              		.align	1
 6163              		.global	HAL_TIM_IC_Start_IT
 6164              		.syntax unified
 6165              		.thumb
 6166              		.thumb_func
 6168              	HAL_TIM_IC_Start_IT:
 6169              		@ args = 0, pretend = 0, frame = 0
 6170              		@ frame_needed = 0, uses_anonymous_args = 0
 6171 0000 10B5     		push	{r4, lr}
 6172 0002 0446     		mov	r4, r0
 6173 0004 0B46     		mov	r3, r1
 6174 0006 0029     		cmp	r1, #0
 6175 0008 45D1     		bne	.L860
 6176 000a 90F83E00 		ldrb	r0, [r0, #62]	@ zero_extendqisi2
 6177 000e C0B2     		uxtb	r0, r0
 6178 0010 94F84220 		ldrb	r2, [r4, #66]	@ zero_extendqisi2
 6179 0014 D2B2     		uxtb	r2, r2
 6180              	.L861:
 6181 0016 0128     		cmp	r0, #1
 6182 0018 40F0B580 		bne	.L882
 6183 001c 012A     		cmp	r2, #1
 6184 001e 40F0B380 		bne	.L867
 6185 0022 002B     		cmp	r3, #0
 6186 0024 56D1     		bne	.L868
 6187 0026 0222     		movs	r2, #2
 6188 0028 84F83E20 		strb	r2, [r4, #62]
 6189 002c 84F84220 		strb	r2, [r4, #66]
 6190              	.L869:
 6191 0030 2168     		ldr	r1, [r4]
 6192 0032 CA68     		ldr	r2, [r1, #12]
 6193 0034 42F00202 		orr	r2, r2, #2
 6194 0038 CA60     		str	r2, [r1, #12]
 6195              	.L879:
 6196 003a 0122     		movs	r2, #1
ARM GAS  C:\Users\PNGUBO~1\AppData\Local\Temp\ccYA2Pp6.s 			page 106


 6197 003c 1946     		mov	r1, r3
 6198 003e 2068     		ldr	r0, [r4]
 6199 0040 FFF7FEFF 		bl	TIM_CCxChannelCmd
 6200 0044 2368     		ldr	r3, [r4]
 6201 0046 534A     		ldr	r2, .L897
 6202 0048 9342     		cmp	r3, r2
 6203 004a 00F09180 		beq	.L880
 6204 004e B3F1804F 		cmp	r3, #1073741824
 6205 0052 00F08D80 		beq	.L880
 6206 0056 A2F57C42 		sub	r2, r2, #64512
 6207 005a 9342     		cmp	r3, r2
 6208 005c 00F08880 		beq	.L880
 6209 0060 02F58062 		add	r2, r2, #1024
 6210 0064 9342     		cmp	r3, r2
 6211 0066 00F08380 		beq	.L880
 6212 006a 02F58062 		add	r2, r2, #1024
 6213 006e 9342     		cmp	r3, r2
 6214 0070 7ED0     		beq	.L880
 6215 0072 02F57842 		add	r2, r2, #63488
 6216 0076 9342     		cmp	r3, r2
 6217 0078 7AD0     		beq	.L880
 6218 007a 02F57052 		add	r2, r2, #15360
 6219 007e 9342     		cmp	r3, r2
 6220 0080 76D0     		beq	.L880
 6221 0082 A2F59432 		sub	r2, r2, #75776
 6222 0086 9342     		cmp	r3, r2
 6223 0088 72D0     		beq	.L880
 6224 008a 1A68     		ldr	r2, [r3]
 6225 008c 42F00102 		orr	r2, r2, #1
 6226 0090 1A60     		str	r2, [r3]
 6227 0092 0020     		movs	r0, #0
 6228 0094 78E0     		b	.L867
 6229              	.L860:
 6230 0096 0429     		cmp	r1, #4
 6231 0098 0CD0     		beq	.L889
 6232 009a 0829     		cmp	r1, #8
 6233 009c 0ED0     		beq	.L890
 6234 009e 90F84100 		ldrb	r0, [r0, #65]	@ zero_extendqisi2
 6235 00a2 C0B2     		uxtb	r0, r0
 6236              	.L863:
 6237 00a4 042B     		cmp	r3, #4
 6238 00a6 0DD0     		beq	.L891
 6239 00a8 082B     		cmp	r3, #8
 6240 00aa 0FD0     		beq	.L892
 6241 00ac 94F84520 		ldrb	r2, [r4, #69]	@ zero_extendqisi2
 6242 00b0 D2B2     		uxtb	r2, r2
 6243 00b2 B0E7     		b	.L861
 6244              	.L889:
 6245 00b4 90F83F00 		ldrb	r0, [r0, #63]	@ zero_extendqisi2
 6246 00b8 C0B2     		uxtb	r0, r0
 6247 00ba F3E7     		b	.L863
 6248              	.L890:
 6249 00bc 90F84000 		ldrb	r0, [r0, #64]	@ zero_extendqisi2
 6250 00c0 C0B2     		uxtb	r0, r0
 6251 00c2 EFE7     		b	.L863
 6252              	.L891:
 6253 00c4 94F84320 		ldrb	r2, [r4, #67]	@ zero_extendqisi2
ARM GAS  C:\Users\PNGUBO~1\AppData\Local\Temp\ccYA2Pp6.s 			page 107


 6254 00c8 D2B2     		uxtb	r2, r2
 6255 00ca A4E7     		b	.L861
 6256              	.L892:
 6257 00cc 94F84420 		ldrb	r2, [r4, #68]	@ zero_extendqisi2
 6258 00d0 D2B2     		uxtb	r2, r2
 6259 00d2 A0E7     		b	.L861
 6260              	.L868:
 6261 00d4 042B     		cmp	r3, #4
 6262 00d6 2BD0     		beq	.L893
 6263 00d8 082B     		cmp	r3, #8
 6264 00da 2DD0     		beq	.L894
 6265 00dc 0221     		movs	r1, #2
 6266 00de 84F84110 		strb	r1, [r4, #65]
 6267              	.L871:
 6268 00e2 042B     		cmp	r3, #4
 6269 00e4 2CD0     		beq	.L895
 6270 00e6 082B     		cmp	r3, #8
 6271 00e8 33D0     		beq	.L896
 6272 00ea 0221     		movs	r1, #2
 6273 00ec 84F84510 		strb	r1, [r4, #69]
 6274 00f0 0C2B     		cmp	r3, #12
 6275 00f2 4AD8     		bhi	.L883
 6276 00f4 01A1     		adr	r1, .L878
 6277 00f6 51F823F0 		ldr	pc, [r1, r3, lsl #2]
 6278 00fa 00BF     		.p2align 2
 6279              	.L878:
 6280 00fc 31000000 		.word	.L869+1
 6281 0100 8B010000 		.word	.L883+1
 6282 0104 8B010000 		.word	.L883+1
 6283 0108 8B010000 		.word	.L883+1
 6284 010c 47010000 		.word	.L874+1
 6285 0110 8B010000 		.word	.L883+1
 6286 0114 8B010000 		.word	.L883+1
 6287 0118 8B010000 		.word	.L883+1
 6288 011c 59010000 		.word	.L876+1
 6289 0120 8B010000 		.word	.L883+1
 6290 0124 8B010000 		.word	.L883+1
 6291 0128 8B010000 		.word	.L883+1
 6292 012c 65010000 		.word	.L877+1
 6293              		.p2align 1
 6294              	.L893:
 6295 0130 0221     		movs	r1, #2
 6296 0132 84F83F10 		strb	r1, [r4, #63]
 6297 0136 D4E7     		b	.L871
 6298              	.L894:
 6299 0138 0221     		movs	r1, #2
 6300 013a 84F84010 		strb	r1, [r4, #64]
 6301 013e D0E7     		b	.L871
 6302              	.L895:
 6303 0140 0222     		movs	r2, #2
 6304 0142 84F84320 		strb	r2, [r4, #67]
 6305              	.L874:
 6306 0146 2168     		ldr	r1, [r4]
 6307 0148 CA68     		ldr	r2, [r1, #12]
 6308 014a 42F00402 		orr	r2, r2, #4
 6309 014e CA60     		str	r2, [r1, #12]
 6310 0150 73E7     		b	.L879
ARM GAS  C:\Users\PNGUBO~1\AppData\Local\Temp\ccYA2Pp6.s 			page 108


 6311              	.L896:
 6312 0152 0222     		movs	r2, #2
 6313 0154 84F84420 		strb	r2, [r4, #68]
 6314              	.L876:
 6315 0158 2168     		ldr	r1, [r4]
 6316 015a CA68     		ldr	r2, [r1, #12]
 6317 015c 42F00802 		orr	r2, r2, #8
 6318 0160 CA60     		str	r2, [r1, #12]
 6319 0162 6AE7     		b	.L879
 6320              	.L877:
 6321 0164 2168     		ldr	r1, [r4]
 6322 0166 CA68     		ldr	r2, [r1, #12]
 6323 0168 42F01002 		orr	r2, r2, #16
 6324 016c CA60     		str	r2, [r1, #12]
 6325 016e 64E7     		b	.L879
 6326              	.L880:
 6327 0170 9A68     		ldr	r2, [r3, #8]
 6328 0172 02F00702 		and	r2, r2, #7
 6329 0176 062A     		cmp	r2, #6
 6330 0178 09D0     		beq	.L884
 6331 017a 1A68     		ldr	r2, [r3]
 6332 017c 42F00102 		orr	r2, r2, #1
 6333 0180 1A60     		str	r2, [r3]
 6334 0182 0020     		movs	r0, #0
 6335 0184 00E0     		b	.L867
 6336              	.L882:
 6337 0186 0120     		movs	r0, #1
 6338              	.L867:
 6339 0188 10BD     		pop	{r4, pc}
 6340              	.L883:
 6341 018a 1046     		mov	r0, r2
 6342 018c FCE7     		b	.L867
 6343              	.L884:
 6344 018e 0020     		movs	r0, #0
 6345 0190 FAE7     		b	.L867
 6346              	.L898:
 6347 0192 00BF     		.align	2
 6348              	.L897:
 6349 0194 00000140 		.word	1073807360
 6351              		.section	.text.HAL_TIM_IC_Stop_IT,"ax",%progbits
 6352              		.align	1
 6353              		.global	HAL_TIM_IC_Stop_IT
 6354              		.syntax unified
 6355              		.thumb
 6356              		.thumb_func
 6358              	HAL_TIM_IC_Stop_IT:
 6359              		@ args = 0, pretend = 0, frame = 0
 6360              		@ frame_needed = 0, uses_anonymous_args = 0
 6361 0000 38B5     		push	{r3, r4, r5, lr}
 6362 0002 0546     		mov	r5, r0
 6363 0004 0C46     		mov	r4, r1
 6364 0006 0C29     		cmp	r1, #12
 6365 0008 5DD8     		bhi	.L914
 6366 000a DFE801F0 		tbb	[pc, r1]
 6367              	.L902:
 6368 000e 07       		.byte	(.L905-.L902)/2
 6369 000f 5C       		.byte	(.L914-.L902)/2
ARM GAS  C:\Users\PNGUBO~1\AppData\Local\Temp\ccYA2Pp6.s 			page 109


 6370 0010 5C       		.byte	(.L914-.L902)/2
 6371 0011 5C       		.byte	(.L914-.L902)/2
 6372 0012 28       		.byte	(.L904-.L902)/2
 6373 0013 5C       		.byte	(.L914-.L902)/2
 6374 0014 5C       		.byte	(.L914-.L902)/2
 6375 0015 5C       		.byte	(.L914-.L902)/2
 6376 0016 2E       		.byte	(.L903-.L902)/2
 6377 0017 5C       		.byte	(.L914-.L902)/2
 6378 0018 5C       		.byte	(.L914-.L902)/2
 6379 0019 5C       		.byte	(.L914-.L902)/2
 6380 001a 34       		.byte	(.L901-.L902)/2
 6381 001b 00       		.p2align 1
 6382              	.L905:
 6383 001c 0268     		ldr	r2, [r0]
 6384 001e D368     		ldr	r3, [r2, #12]
 6385 0020 23F00203 		bic	r3, r3, #2
 6386 0024 D360     		str	r3, [r2, #12]
 6387              	.L906:
 6388 0026 0022     		movs	r2, #0
 6389 0028 2146     		mov	r1, r4
 6390 002a 2868     		ldr	r0, [r5]
 6391 002c FFF7FEFF 		bl	TIM_CCxChannelCmd
 6392 0030 2B68     		ldr	r3, [r5]
 6393 0032 196A     		ldr	r1, [r3, #32]
 6394 0034 41F21112 		movw	r2, #4369
 6395 0038 1142     		tst	r1, r2
 6396 003a 08D1     		bne	.L907
 6397 003c 196A     		ldr	r1, [r3, #32]
 6398 003e 40F24442 		movw	r2, #1092
 6399 0042 1142     		tst	r1, r2
 6400 0044 03D1     		bne	.L907
 6401 0046 1A68     		ldr	r2, [r3]
 6402 0048 22F00102 		bic	r2, r2, #1
 6403 004c 1A60     		str	r2, [r3]
 6404              	.L907:
 6405 004e C4B9     		cbnz	r4, .L908
 6406 0050 0123     		movs	r3, #1
 6407 0052 85F83E30 		strb	r3, [r5, #62]
 6408 0056 85F84230 		strb	r3, [r5, #66]
 6409 005a 0020     		movs	r0, #0
 6410 005c 34E0     		b	.L900
 6411              	.L904:
 6412 005e 0268     		ldr	r2, [r0]
 6413 0060 D368     		ldr	r3, [r2, #12]
 6414 0062 23F00403 		bic	r3, r3, #4
 6415 0066 D360     		str	r3, [r2, #12]
 6416 0068 DDE7     		b	.L906
 6417              	.L903:
 6418 006a 0268     		ldr	r2, [r0]
 6419 006c D368     		ldr	r3, [r2, #12]
 6420 006e 23F00803 		bic	r3, r3, #8
 6421 0072 D360     		str	r3, [r2, #12]
 6422 0074 D7E7     		b	.L906
 6423              	.L901:
 6424 0076 0268     		ldr	r2, [r0]
 6425 0078 D368     		ldr	r3, [r2, #12]
 6426 007a 23F01003 		bic	r3, r3, #16
ARM GAS  C:\Users\PNGUBO~1\AppData\Local\Temp\ccYA2Pp6.s 			page 110


 6427 007e D360     		str	r3, [r2, #12]
 6428 0080 D1E7     		b	.L906
 6429              	.L908:
 6430 0082 042C     		cmp	r4, #4
 6431 0084 0DD0     		beq	.L916
 6432 0086 082C     		cmp	r4, #8
 6433 0088 0FD0     		beq	.L917
 6434 008a 0123     		movs	r3, #1
 6435 008c 85F84130 		strb	r3, [r5, #65]
 6436              	.L910:
 6437 0090 042C     		cmp	r4, #4
 6438 0092 0ED0     		beq	.L918
 6439 0094 082C     		cmp	r4, #8
 6440 0096 11D0     		beq	.L919
 6441 0098 0123     		movs	r3, #1
 6442 009a 85F84530 		strb	r3, [r5, #69]
 6443 009e 0020     		movs	r0, #0
 6444 00a0 12E0     		b	.L900
 6445              	.L916:
 6446 00a2 0123     		movs	r3, #1
 6447 00a4 85F83F30 		strb	r3, [r5, #63]
 6448 00a8 F2E7     		b	.L910
 6449              	.L917:
 6450 00aa 0123     		movs	r3, #1
 6451 00ac 85F84030 		strb	r3, [r5, #64]
 6452 00b0 EEE7     		b	.L910
 6453              	.L918:
 6454 00b2 0123     		movs	r3, #1
 6455 00b4 85F84330 		strb	r3, [r5, #67]
 6456 00b8 0020     		movs	r0, #0
 6457 00ba 05E0     		b	.L900
 6458              	.L919:
 6459 00bc 0123     		movs	r3, #1
 6460 00be 85F84430 		strb	r3, [r5, #68]
 6461 00c2 0020     		movs	r0, #0
 6462 00c4 00E0     		b	.L900
 6463              	.L914:
 6464 00c6 0120     		movs	r0, #1
 6465              	.L900:
 6466 00c8 38BD     		pop	{r3, r4, r5, pc}
 6468              		.section	.text.HAL_TIM_IC_Start_DMA,"ax",%progbits
 6469              		.align	1
 6470              		.global	HAL_TIM_IC_Start_DMA
 6471              		.syntax unified
 6472              		.thumb
 6473              		.thumb_func
 6475              	HAL_TIM_IC_Start_DMA:
 6476              		@ args = 0, pretend = 0, frame = 0
 6477              		@ frame_needed = 0, uses_anonymous_args = 0
 6478 0000 2DE9F041 		push	{r4, r5, r6, r7, r8, lr}
 6479 0004 0446     		mov	r4, r0
 6480 0006 1646     		mov	r6, r2
 6481 0008 1F46     		mov	r7, r3
 6482 000a 0D46     		mov	r5, r1
 6483 000c 89BB     		cbnz	r1, .L921
 6484 000e 90F83E10 		ldrb	r1, [r0, #62]	@ zero_extendqisi2
 6485 0012 C8B2     		uxtb	r0, r1
ARM GAS  C:\Users\PNGUBO~1\AppData\Local\Temp\ccYA2Pp6.s 			page 111


 6486 0014 94F84280 		ldrb	r8, [r4, #66]	@ zero_extendqisi2
 6487 0018 5FFA88F8 		uxtb	r8, r8
 6488              	.L922:
 6489 001c 0228     		cmp	r0, #2
 6490 001e 00F0FF80 		beq	.L928
 6491 0022 B8F1020F 		cmp	r8, #2
 6492 0026 00F0F880 		beq	.L944
 6493 002a 0128     		cmp	r0, #1
 6494 002c 40F0F780 		bne	.L945
 6495 0030 B8F1010F 		cmp	r8, #1
 6496 0034 40F0F480 		bne	.L928
 6497 0038 002E     		cmp	r6, #0
 6498 003a 00F0F380 		beq	.L946
 6499 003e 002F     		cmp	r7, #0
 6500 0040 00F0F280 		beq	.L947
 6501 0044 002D     		cmp	r5, #0
 6502 0046 36D1     		bne	.L929
 6503 0048 0223     		movs	r3, #2
 6504 004a 84F83E30 		strb	r3, [r4, #62]
 6505 004e 84F84230 		strb	r3, [r4, #66]
 6506              	.L930:
 6507 0052 0122     		movs	r2, #1
 6508 0054 2946     		mov	r1, r5
 6509 0056 2068     		ldr	r0, [r4]
 6510 0058 FFF7FEFF 		bl	TIM_CCxChannelCmd
 6511 005c 0C2D     		cmp	r5, #12
 6512 005e 62D8     		bhi	.L936
 6513 0060 DFE805F0 		tbb	[pc, r5]
 6514              	.L938:
 6515 0064 48       		.byte	(.L941-.L938)/2
 6516 0065 61       		.byte	(.L936-.L938)/2
 6517 0066 61       		.byte	(.L936-.L938)/2
 6518 0067 61       		.byte	(.L936-.L938)/2
 6519 0068 86       		.byte	(.L940-.L938)/2
 6520 0069 61       		.byte	(.L936-.L938)/2
 6521 006a 61       		.byte	(.L936-.L938)/2
 6522 006b 61       		.byte	(.L936-.L938)/2
 6523 006c 9F       		.byte	(.L939-.L938)/2
 6524 006d 61       		.byte	(.L936-.L938)/2
 6525 006e 61       		.byte	(.L936-.L938)/2
 6526 006f 61       		.byte	(.L936-.L938)/2
 6527 0070 B8       		.byte	(.L937-.L938)/2
 6528 0071 00       		.p2align 1
 6529              	.L921:
 6530 0072 0429     		cmp	r1, #4
 6531 0074 0DD0     		beq	.L955
 6532 0076 0829     		cmp	r1, #8
 6533 0078 0FD0     		beq	.L956
 6534 007a 90F84110 		ldrb	r1, [r0, #65]	@ zero_extendqisi2
 6535 007e C8B2     		uxtb	r0, r1
 6536              	.L924:
 6537 0080 042D     		cmp	r5, #4
 6538 0082 0ED0     		beq	.L957
 6539 0084 082D     		cmp	r5, #8
 6540 0086 11D0     		beq	.L958
 6541 0088 94F84580 		ldrb	r8, [r4, #69]	@ zero_extendqisi2
 6542 008c 5FFA88F8 		uxtb	r8, r8
ARM GAS  C:\Users\PNGUBO~1\AppData\Local\Temp\ccYA2Pp6.s 			page 112


 6543 0090 C4E7     		b	.L922
 6544              	.L955:
 6545 0092 90F83F10 		ldrb	r1, [r0, #63]	@ zero_extendqisi2
 6546 0096 C8B2     		uxtb	r0, r1
 6547 0098 F2E7     		b	.L924
 6548              	.L956:
 6549 009a 90F84000 		ldrb	r0, [r0, #64]	@ zero_extendqisi2
 6550 009e C0B2     		uxtb	r0, r0
 6551 00a0 EEE7     		b	.L924
 6552              	.L957:
 6553 00a2 94F84380 		ldrb	r8, [r4, #67]	@ zero_extendqisi2
 6554 00a6 5FFA88F8 		uxtb	r8, r8
 6555 00aa B7E7     		b	.L922
 6556              	.L958:
 6557 00ac 94F84480 		ldrb	r8, [r4, #68]	@ zero_extendqisi2
 6558 00b0 5FFA88F8 		uxtb	r8, r8
 6559 00b4 B2E7     		b	.L922
 6560              	.L929:
 6561 00b6 042D     		cmp	r5, #4
 6562 00b8 0CD0     		beq	.L959
 6563 00ba 082D     		cmp	r5, #8
 6564 00bc 0ED0     		beq	.L960
 6565 00be 0223     		movs	r3, #2
 6566 00c0 84F84130 		strb	r3, [r4, #65]
 6567              	.L932:
 6568 00c4 042D     		cmp	r5, #4
 6569 00c6 0DD0     		beq	.L961
 6570 00c8 082D     		cmp	r5, #8
 6571 00ca 0FD0     		beq	.L962
 6572 00cc 0223     		movs	r3, #2
 6573 00ce 84F84530 		strb	r3, [r4, #69]
 6574 00d2 BEE7     		b	.L930
 6575              	.L959:
 6576 00d4 0223     		movs	r3, #2
 6577 00d6 84F83F30 		strb	r3, [r4, #63]
 6578 00da F3E7     		b	.L932
 6579              	.L960:
 6580 00dc 0223     		movs	r3, #2
 6581 00de 84F84030 		strb	r3, [r4, #64]
 6582 00e2 EFE7     		b	.L932
 6583              	.L961:
 6584 00e4 0223     		movs	r3, #2
 6585 00e6 84F84330 		strb	r3, [r4, #67]
 6586 00ea B2E7     		b	.L930
 6587              	.L962:
 6588 00ec 0223     		movs	r3, #2
 6589 00ee 84F84430 		strb	r3, [r4, #68]
 6590 00f2 AEE7     		b	.L930
 6591              	.L941:
 6592 00f4 636A     		ldr	r3, [r4, #36]
 6593 00f6 524A     		ldr	r2, .L963
 6594 00f8 DA63     		str	r2, [r3, #60]
 6595 00fa 636A     		ldr	r3, [r4, #36]
 6596 00fc 514A     		ldr	r2, .L963+4
 6597 00fe 1A64     		str	r2, [r3, #64]
 6598 0100 636A     		ldr	r3, [r4, #36]
 6599 0102 514A     		ldr	r2, .L963+8
ARM GAS  C:\Users\PNGUBO~1\AppData\Local\Temp\ccYA2Pp6.s 			page 113


 6600 0104 DA64     		str	r2, [r3, #76]
 6601 0106 2168     		ldr	r1, [r4]
 6602 0108 3B46     		mov	r3, r7
 6603 010a 3246     		mov	r2, r6
 6604 010c 3431     		adds	r1, r1, #52
 6605 010e 606A     		ldr	r0, [r4, #36]
 6606 0110 FFF7FEFF 		bl	HAL_DMA_Start_IT
 6607 0114 0028     		cmp	r0, #0
 6608 0116 40F08980 		bne	.L948
 6609 011a 2268     		ldr	r2, [r4]
 6610 011c D368     		ldr	r3, [r2, #12]
 6611 011e 43F40073 		orr	r3, r3, #512
 6612 0122 D360     		str	r3, [r2, #12]
 6613 0124 8046     		mov	r8, r0
 6614              	.L936:
 6615 0126 2368     		ldr	r3, [r4]
 6616 0128 484A     		ldr	r2, .L963+12
 6617 012a 9342     		cmp	r3, r2
 6618 012c 6AD0     		beq	.L942
 6619 012e B3F1804F 		cmp	r3, #1073741824
 6620 0132 67D0     		beq	.L942
 6621 0134 A2F57C42 		sub	r2, r2, #64512
 6622 0138 9342     		cmp	r3, r2
 6623 013a 63D0     		beq	.L942
 6624 013c 02F58062 		add	r2, r2, #1024
 6625 0140 9342     		cmp	r3, r2
 6626 0142 5FD0     		beq	.L942
 6627 0144 02F58062 		add	r2, r2, #1024
 6628 0148 9342     		cmp	r3, r2
 6629 014a 5BD0     		beq	.L942
 6630 014c 02F57842 		add	r2, r2, #63488
 6631 0150 9342     		cmp	r3, r2
 6632 0152 57D0     		beq	.L942
 6633 0154 02F57052 		add	r2, r2, #15360
 6634 0158 9342     		cmp	r3, r2
 6635 015a 53D0     		beq	.L942
 6636 015c A2F59432 		sub	r2, r2, #75776
 6637 0160 9342     		cmp	r3, r2
 6638 0162 4FD0     		beq	.L942
 6639 0164 1A68     		ldr	r2, [r3]
 6640 0166 42F00102 		orr	r2, r2, #1
 6641 016a 1A60     		str	r2, [r3]
 6642 016c 4046     		mov	r0, r8
 6643 016e 57E0     		b	.L928
 6644              	.L940:
 6645 0170 A36A     		ldr	r3, [r4, #40]
 6646 0172 334A     		ldr	r2, .L963
 6647 0174 DA63     		str	r2, [r3, #60]
 6648 0176 A36A     		ldr	r3, [r4, #40]
 6649 0178 324A     		ldr	r2, .L963+4
 6650 017a 1A64     		str	r2, [r3, #64]
 6651 017c A36A     		ldr	r3, [r4, #40]
 6652 017e 324A     		ldr	r2, .L963+8
 6653 0180 DA64     		str	r2, [r3, #76]
 6654 0182 2168     		ldr	r1, [r4]
 6655 0184 3B46     		mov	r3, r7
 6656 0186 3246     		mov	r2, r6
ARM GAS  C:\Users\PNGUBO~1\AppData\Local\Temp\ccYA2Pp6.s 			page 114


 6657 0188 3831     		adds	r1, r1, #56
 6658 018a A06A     		ldr	r0, [r4, #40]
 6659 018c FFF7FEFF 		bl	HAL_DMA_Start_IT
 6660 0190 0028     		cmp	r0, #0
 6661 0192 4DD1     		bne	.L949
 6662 0194 2268     		ldr	r2, [r4]
 6663 0196 D368     		ldr	r3, [r2, #12]
 6664 0198 43F48063 		orr	r3, r3, #1024
 6665 019c D360     		str	r3, [r2, #12]
 6666 019e 8046     		mov	r8, r0
 6667 01a0 C1E7     		b	.L936
 6668              	.L939:
 6669 01a2 E36A     		ldr	r3, [r4, #44]
 6670 01a4 264A     		ldr	r2, .L963
 6671 01a6 DA63     		str	r2, [r3, #60]
 6672 01a8 E36A     		ldr	r3, [r4, #44]
 6673 01aa 264A     		ldr	r2, .L963+4
 6674 01ac 1A64     		str	r2, [r3, #64]
 6675 01ae E36A     		ldr	r3, [r4, #44]
 6676 01b0 254A     		ldr	r2, .L963+8
 6677 01b2 DA64     		str	r2, [r3, #76]
 6678 01b4 2168     		ldr	r1, [r4]
 6679 01b6 3B46     		mov	r3, r7
 6680 01b8 3246     		mov	r2, r6
 6681 01ba 3C31     		adds	r1, r1, #60
 6682 01bc E06A     		ldr	r0, [r4, #44]
 6683 01be FFF7FEFF 		bl	HAL_DMA_Start_IT
 6684 01c2 0028     		cmp	r0, #0
 6685 01c4 36D1     		bne	.L950
 6686 01c6 2268     		ldr	r2, [r4]
 6687 01c8 D368     		ldr	r3, [r2, #12]
 6688 01ca 43F40063 		orr	r3, r3, #2048
 6689 01ce D360     		str	r3, [r2, #12]
 6690 01d0 8046     		mov	r8, r0
 6691 01d2 A8E7     		b	.L936
 6692              	.L937:
 6693 01d4 236B     		ldr	r3, [r4, #48]
 6694 01d6 1A4A     		ldr	r2, .L963
 6695 01d8 DA63     		str	r2, [r3, #60]
 6696 01da 236B     		ldr	r3, [r4, #48]
 6697 01dc 194A     		ldr	r2, .L963+4
 6698 01de 1A64     		str	r2, [r3, #64]
 6699 01e0 236B     		ldr	r3, [r4, #48]
